SF:/home/abdyhw/Documents/Grilles/inspection-multi-grilles-copy/inspection-officine/src-tauri/src/analytics.rs
FN:336,_RNvMNtCs6hgwym0NSuY_19inspection_officine9analyticsNtB2_16AnalyticsService13export_to_csv
FN:322,_RNvMNtCs6hgwym0NSuY_19inspection_officine9analyticsNtB2_16AnalyticsService15generate_report
FN:211,_RNvMNtCs6hgwym0NSuY_19inspection_officine9analyticsNtB2_16AnalyticsService25calculate_inspector_stats
FN:261,_RNvMNtCs6hgwym0NSuY_19inspection_officine9analyticsNtB2_16AnalyticsService25get_top_critical_findings
FN:177,_RNvMNtCs6hgwym0NSuY_19inspection_officine9analyticsNtB2_16AnalyticsService26calculate_department_stats
FN:291,_RNvMNtCs6hgwym0NSuY_19inspection_officine9analyticsNtB2_16AnalyticsService27calculate_compliance_trends
FN:150,_RNvMNtCs6hgwym0NSuY_19inspection_officine9analyticsNtB2_16AnalyticsService29calculate_establishment_stats
FN:408,_RNvNtNtCs6hgwym0NSuY_19inspection_officine9analytics5testss_27test_time_series_generation
FN:390,_RNvNtNtCs6hgwym0NSuY_19inspection_officine9analytics5testss_29test_global_stats_calculation
FN:384,_RNvNtNtCs6hgwym0NSuY_19inspection_officine9analytics5testss_31test_analytics_service_creation
FN:238,_RNvMNtCs6hgwym0NSuY_19inspection_officine9analyticsNtB2_16AnalyticsService20generate_time_series
FN:125,_RNvMNtCs6hgwym0NSuY_19inspection_officine9analyticsNtB2_16AnalyticsService22calculate_global_stats
FN:120,_RNvMNtCs6hgwym0NSuY_19inspection_officine9analyticsNtB2_16AnalyticsService3new
FNDA:0,_RNvMNtCs6hgwym0NSuY_19inspection_officine9analyticsNtB2_16AnalyticsService13export_to_csv
FNDA:0,_RNvMNtCs6hgwym0NSuY_19inspection_officine9analyticsNtB2_16AnalyticsService15generate_report
FNDA:0,_RNvMNtCs6hgwym0NSuY_19inspection_officine9analyticsNtB2_16AnalyticsService25calculate_inspector_stats
FNDA:0,_RNvMNtCs6hgwym0NSuY_19inspection_officine9analyticsNtB2_16AnalyticsService25get_top_critical_findings
FNDA:0,_RNvMNtCs6hgwym0NSuY_19inspection_officine9analyticsNtB2_16AnalyticsService26calculate_department_stats
FNDA:0,_RNvMNtCs6hgwym0NSuY_19inspection_officine9analyticsNtB2_16AnalyticsService27calculate_compliance_trends
FNDA:0,_RNvMNtCs6hgwym0NSuY_19inspection_officine9analyticsNtB2_16AnalyticsService29calculate_establishment_stats
FNDA:0,_RNvNtNtCs6hgwym0NSuY_19inspection_officine9analytics5testss_27test_time_series_generation
FNDA:0,_RNvNtNtCs6hgwym0NSuY_19inspection_officine9analytics5testss_29test_global_stats_calculation
FNDA:0,_RNvNtNtCs6hgwym0NSuY_19inspection_officine9analytics5testss_31test_analytics_service_creation
FNDA:0,_RNvMNtCs6hgwym0NSuY_19inspection_officine9analyticsNtB2_16AnalyticsService20generate_time_series
FNDA:0,_RNvMNtCs6hgwym0NSuY_19inspection_officine9analyticsNtB2_16AnalyticsService22calculate_global_stats
FNDA:0,_RNvMNtCs6hgwym0NSuY_19inspection_officine9analyticsNtB2_16AnalyticsService3new
FNF:13
FNH:0
DA:120,0
DA:121,0
DA:122,0
DA:125,0
DA:129,0
DA:130,0
DA:131,0
DA:132,0
DA:133,0
DA:134,0
DA:135,0
DA:138,0
DA:139,0
DA:140,0
DA:141,0
DA:142,0
DA:143,0
DA:144,0
DA:145,0
DA:146,0
DA:147,0
DA:150,0
DA:151,0
DA:152,0
DA:153,0
DA:154,0
DA:155,0
DA:156,0
DA:157,0
DA:158,0
DA:159,0
DA:160,0
DA:161,0
DA:162,0
DA:163,0
DA:164,0
DA:165,0
DA:166,0
DA:167,0
DA:168,0
DA:169,0
DA:170,0
DA:171,0
DA:172,0
DA:174,0
DA:177,0
DA:178,0
DA:179,0
DA:180,0
DA:181,0
DA:182,0
DA:183,0
DA:184,0
DA:185,0
DA:186,0
DA:187,0
DA:188,0
DA:189,0
DA:190,0
DA:191,0
DA:192,0
DA:193,0
DA:194,0
DA:195,0
DA:196,0
DA:197,0
DA:198,0
DA:199,0
DA:200,0
DA:201,0
DA:202,0
DA:203,0
DA:204,0
DA:205,0
DA:206,0
DA:208,0
DA:211,0
DA:212,0
DA:213,0
DA:214,0
DA:215,0
DA:216,0
DA:217,0
DA:218,0
DA:219,0
DA:220,0
DA:221,0
DA:222,0
DA:223,0
DA:224,0
DA:225,0
DA:226,0
DA:227,0
DA:228,0
DA:229,0
DA:230,0
DA:231,0
DA:232,0
DA:233,0
DA:235,0
DA:238,0
DA:239,0
DA:240,0
DA:242,0
DA:243,0
DA:244,0
DA:245,0
DA:246,0
DA:247,0
DA:248,0
DA:249,0
DA:250,0
DA:251,0
DA:252,0
DA:253,0
DA:254,0
DA:255,0
DA:257,0
DA:258,0
DA:261,0
DA:262,0
DA:263,0
DA:264,0
DA:265,0
DA:266,0
DA:267,0
DA:268,0
DA:269,0
DA:270,0
DA:271,0
DA:272,0
DA:273,0
DA:274,0
DA:275,0
DA:276,0
DA:277,0
DA:278,0
DA:279,0
DA:280,0
DA:281,0
DA:282,0
DA:283,0
DA:284,0
DA:285,0
DA:286,0
DA:288,0
DA:291,0
DA:292,0
DA:293,0
DA:294,0
DA:295,0
DA:296,0
DA:297,0
DA:298,0
DA:299,0
DA:300,0
DA:301,0
DA:302,0
DA:303,0
DA:304,0
DA:305,0
DA:306,0
DA:307,0
DA:308,0
DA:309,0
DA:310,0
DA:311,0
DA:312,0
DA:313,0
DA:314,0
DA:315,0
DA:316,0
DA:317,0
DA:319,0
DA:322,0
DA:323,0
DA:324,0
DA:325,0
DA:326,0
DA:327,0
DA:328,0
DA:329,0
DA:330,0
DA:331,0
DA:332,0
DA:333,0
DA:336,0
DA:337,0
DA:340,0
DA:341,0
DA:342,0
DA:343,0
DA:346,0
DA:347,0
DA:348,0
DA:349,0
DA:350,0
DA:351,0
DA:352,0
DA:353,0
DA:354,0
DA:355,0
DA:356,0
DA:357,0
DA:358,0
DA:361,0
DA:362,0
DA:363,0
DA:364,0
DA:365,0
DA:366,0
DA:367,0
DA:368,0
DA:369,0
DA:370,0
DA:371,0
DA:372,0
DA:373,0
DA:375,0
DA:376,0
DA:384,0
DA:385,0
DA:386,0
DA:387,0
DA:390,0
DA:391,0
DA:392,0
DA:393,0
DA:394,0
DA:395,0
DA:396,0
DA:397,0
DA:398,0
DA:399,0
DA:400,0
DA:402,0
DA:403,0
DA:404,0
DA:405,0
DA:408,0
DA:409,0
DA:410,0
DA:411,0
DA:412,0
BRF:0
BRH:0
LF:244
LH:0
end_of_record
SF:/home/abdyhw/Documents/Grilles/inspection-multi-grilles-copy/inspection-officine/src-tauri/src/audit_db.rs
FN:315,_RNCNvMNtCs6hgwym0NSuY_19inspection_officine8audit_dbNtB4_13AuditDatabase17export_audit_json0B6_
FN:48,_RNCNvMNtCs6hgwym0NSuY_19inspection_officine8audit_dbNtB4_13AuditDatabase3new0B6_
FN:67,_RNCNvMNtCs6hgwym0NSuY_19inspection_officine8audit_dbNtB4_13AuditDatabase3news_0B6_
FN:98,_RNCNvMNtCs6hgwym0NSuY_19inspection_officine8audit_dbNtB4_13AuditDatabase6backup0B6_
FN:100,_RNCNvMNtCs6hgwym0NSuY_19inspection_officine8audit_dbNtB4_13AuditDatabase6backups_0B6_
FN:290,_RNvMNtCs6hgwym0NSuY_19inspection_officine8audit_dbNtB2_13AuditDatabase16export_audit_csv
FN:312,_RNvMNtCs6hgwym0NSuY_19inspection_officine8audit_dbNtB2_13AuditDatabase17export_audit_json
FN:42,_RNvMNtCs6hgwym0NSuY_19inspection_officine8audit_dbNtB2_13AuditDatabase3new
FN:97,_RNvMNtCs6hgwym0NSuY_19inspection_officine8audit_dbNtB2_13AuditDatabase6backup
FN:346,_RNvNtNtCs6hgwym0NSuY_19inspection_officine8audit_db5tests12empty_filter
FN:323,_RNvNtNtCs6hgwym0NSuY_19inspection_officine8audit_db5tests20create_test_audit_db
FN:376,_RNvNtNtCs6hgwym0NSuY_19inspection_officine8audit_db5testss_16test_count_audit
FN:360,_RNvNtNtCs6hgwym0NSuY_19inspection_officine8audit_db5testss_27test_insert_and_query_audit
FN:105,_RNvMNtCs6hgwym0NSuY_19inspection_officine8audit_dbNtB2_13AuditDatabase10log_action
FN:248,_RNvMNtCs6hgwym0NSuY_19inspection_officine8audit_dbNtB2_13AuditDatabase11count_audit
FN:173,_RNvMNtCs6hgwym0NSuY_19inspection_officine8audit_dbNtB2_13AuditDatabase11query_audit
FN:144,_RNvMNtCs6hgwym0NSuY_19inspection_officine8audit_dbNtB2_13AuditDatabase15log_grid_action
FN:124,_RNvMNtCs6hgwym0NSuY_19inspection_officine8audit_dbNtB2_13AuditDatabase15log_user_action
FN:249,_RNCNvMNtCs6hgwym0NSuY_19inspection_officine8audit_dbNtB4_13AuditDatabase11count_audit0B6_
FN:283,_RNCNvMNtCs6hgwym0NSuY_19inspection_officine8audit_dbNtB4_13AuditDatabase11count_audits0_0B6_
FN:284,_RNCNvMNtCs6hgwym0NSuY_19inspection_officine8audit_dbNtB4_13AuditDatabase11count_audits1_0B6_
FN:280,_RNCNvMNtCs6hgwym0NSuY_19inspection_officine8audit_dbNtB4_13AuditDatabase11count_audits_0B6_
FN:174,_RNCNvMNtCs6hgwym0NSuY_19inspection_officine8audit_dbNtB4_13AuditDatabase11query_audit0B6_
FN:227,_RNCNvMNtCs6hgwym0NSuY_19inspection_officine8audit_dbNtB4_13AuditDatabase11query_audits0_0B6_
FN:227,_RNCNvMNtCs6hgwym0NSuY_19inspection_officine8audit_dbNtB4_13AuditDatabase11query_audits1_0B6_
FN:240,_RNCNvMNtCs6hgwym0NSuY_19inspection_officine8audit_dbNtB4_13AuditDatabase11query_audits2_0B6_
FN:242,_RNCNvMNtCs6hgwym0NSuY_19inspection_officine8audit_dbNtB4_13AuditDatabase11query_audits3_0B6_
FN:225,_RNCNvMNtCs6hgwym0NSuY_19inspection_officine8audit_dbNtB4_13AuditDatabase11query_audits_0B6_
FNDA:0,_RNCNvMNtCs6hgwym0NSuY_19inspection_officine8audit_dbNtB4_13AuditDatabase17export_audit_json0B6_
FNDA:0,_RNCNvMNtCs6hgwym0NSuY_19inspection_officine8audit_dbNtB4_13AuditDatabase3new0B6_
FNDA:0,_RNCNvMNtCs6hgwym0NSuY_19inspection_officine8audit_dbNtB4_13AuditDatabase3news_0B6_
FNDA:0,_RNCNvMNtCs6hgwym0NSuY_19inspection_officine8audit_dbNtB4_13AuditDatabase6backup0B6_
FNDA:0,_RNCNvMNtCs6hgwym0NSuY_19inspection_officine8audit_dbNtB4_13AuditDatabase6backups_0B6_
FNDA:0,_RNvMNtCs6hgwym0NSuY_19inspection_officine8audit_dbNtB2_13AuditDatabase16export_audit_csv
FNDA:0,_RNvMNtCs6hgwym0NSuY_19inspection_officine8audit_dbNtB2_13AuditDatabase17export_audit_json
FNDA:0,_RNvMNtCs6hgwym0NSuY_19inspection_officine8audit_dbNtB2_13AuditDatabase3new
FNDA:0,_RNvMNtCs6hgwym0NSuY_19inspection_officine8audit_dbNtB2_13AuditDatabase6backup
FNDA:0,_RNvNtNtCs6hgwym0NSuY_19inspection_officine8audit_db5tests12empty_filter
FNDA:0,_RNvNtNtCs6hgwym0NSuY_19inspection_officine8audit_db5tests20create_test_audit_db
FNDA:0,_RNvNtNtCs6hgwym0NSuY_19inspection_officine8audit_db5testss_16test_count_audit
FNDA:0,_RNvNtNtCs6hgwym0NSuY_19inspection_officine8audit_db5testss_27test_insert_and_query_audit
FNDA:0,_RNvMNtCs6hgwym0NSuY_19inspection_officine8audit_dbNtB2_13AuditDatabase10log_action
FNDA:0,_RNvMNtCs6hgwym0NSuY_19inspection_officine8audit_dbNtB2_13AuditDatabase11count_audit
FNDA:0,_RNvMNtCs6hgwym0NSuY_19inspection_officine8audit_dbNtB2_13AuditDatabase11query_audit
FNDA:0,_RNvMNtCs6hgwym0NSuY_19inspection_officine8audit_dbNtB2_13AuditDatabase15log_grid_action
FNDA:0,_RNvMNtCs6hgwym0NSuY_19inspection_officine8audit_dbNtB2_13AuditDatabase15log_user_action
FNDA:0,_RNCNvMNtCs6hgwym0NSuY_19inspection_officine8audit_dbNtB4_13AuditDatabase11count_audit0B6_
FNDA:0,_RNCNvMNtCs6hgwym0NSuY_19inspection_officine8audit_dbNtB4_13AuditDatabase11count_audits0_0B6_
FNDA:0,_RNCNvMNtCs6hgwym0NSuY_19inspection_officine8audit_dbNtB4_13AuditDatabase11count_audits1_0B6_
FNDA:0,_RNCNvMNtCs6hgwym0NSuY_19inspection_officine8audit_dbNtB4_13AuditDatabase11count_audits_0B6_
FNDA:0,_RNCNvMNtCs6hgwym0NSuY_19inspection_officine8audit_dbNtB4_13AuditDatabase11query_audit0B6_
FNDA:0,_RNCNvMNtCs6hgwym0NSuY_19inspection_officine8audit_dbNtB4_13AuditDatabase11query_audits0_0B6_
FNDA:0,_RNCNvMNtCs6hgwym0NSuY_19inspection_officine8audit_dbNtB4_13AuditDatabase11query_audits1_0B6_
FNDA:0,_RNCNvMNtCs6hgwym0NSuY_19inspection_officine8audit_dbNtB4_13AuditDatabase11query_audits2_0B6_
FNDA:0,_RNCNvMNtCs6hgwym0NSuY_19inspection_officine8audit_dbNtB4_13AuditDatabase11query_audits3_0B6_
FNDA:0,_RNCNvMNtCs6hgwym0NSuY_19inspection_officine8audit_dbNtB4_13AuditDatabase11query_audits_0B6_
FNF:28
FNH:0
DA:42,0
DA:43,0
DA:44,0
DA:47,0
DA:48,0
DA:50,0
DA:51,0
DA:54,0
DA:55,0
DA:58,0
DA:59,0
DA:60,0
DA:61,0
DA:62,0
DA:63,0
DA:64,0
DA:67,0
DA:68,0
DA:69,0
DA:70,0
DA:71,0
DA:74,0
DA:75,0
DA:76,0
DA:77,0
DA:78,0
DA:79,0
DA:80,0
DA:81,0
DA:82,0
DA:83,0
DA:84,0
DA:85,0
DA:86,0
DA:87,0
DA:88,0
DA:89,0
DA:90,0
DA:91,0
DA:92,0
DA:94,0
DA:95,0
DA:97,0
DA:98,0
DA:99,0
DA:100,0
DA:101,0
DA:102,0
DA:105,0
DA:106,0
DA:107,0
DA:108,0
DA:109,0
DA:110,0
DA:111,0
DA:112,0
DA:113,0
DA:114,0
DA:115,0
DA:116,0
DA:117,0
DA:118,0
DA:119,0
DA:120,0
DA:121,0
DA:124,0
DA:125,0
DA:126,0
DA:127,0
DA:128,0
DA:129,0
DA:130,0
DA:131,0
DA:132,0
DA:133,0
DA:134,0
DA:135,0
DA:136,0
DA:137,0
DA:138,0
DA:139,0
DA:141,0
DA:144,0
DA:145,0
DA:146,0
DA:147,0
DA:148,0
DA:149,0
DA:150,0
DA:151,0
DA:152,0
DA:153,0
DA:154,0
DA:155,0
DA:156,0
DA:157,0
DA:158,0
DA:159,0
DA:160,0
DA:161,0
DA:162,0
DA:163,0
DA:164,0
DA:165,0
DA:166,0
DA:167,0
DA:168,0
DA:169,0
DA:170,0
DA:173,0
DA:174,0
DA:176,0
DA:180,0
DA:181,0
DA:183,0
DA:184,0
DA:185,0
DA:186,0
DA:187,0
DA:188,0
DA:189,0
DA:190,0
DA:191,0
DA:192,0
DA:193,0
DA:194,0
DA:195,0
DA:196,0
DA:197,0
DA:198,0
DA:199,0
DA:200,0
DA:201,0
DA:202,0
DA:203,0
DA:204,0
DA:205,0
DA:206,0
DA:207,0
DA:208,0
DA:209,0
DA:210,0
DA:211,0
DA:212,0
DA:214,0
DA:216,0
DA:217,0
DA:218,0
DA:219,0
DA:220,0
DA:224,0
DA:225,0
DA:227,0
DA:229,0
DA:230,0
DA:231,0
DA:232,0
DA:233,0
DA:234,0
DA:235,0
DA:236,0
DA:237,0
DA:238,0
DA:240,0
DA:241,0
DA:242,0
DA:244,0
DA:245,0
DA:248,0
DA:249,0
DA:251,0
DA:252,0
DA:254,0
DA:255,0
DA:256,0
DA:257,0
DA:258,0
DA:259,0
DA:260,0
DA:261,0
DA:262,0
DA:263,0
DA:264,0
DA:265,0
DA:266,0
DA:267,0
DA:268,0
DA:269,0
DA:270,0
DA:271,0
DA:272,0
DA:273,0
DA:274,0
DA:275,0
DA:276,0
DA:277,0
DA:279,0
DA:280,0
DA:281,0
DA:283,0
DA:284,0
DA:286,0
DA:287,0
DA:290,0
DA:291,0
DA:292,0
DA:294,0
DA:295,0
DA:296,0
DA:297,0
DA:298,0
DA:299,0
DA:300,0
DA:301,0
DA:302,0
DA:303,0
DA:304,0
DA:305,0
DA:306,0
DA:308,0
DA:309,0
DA:312,0
DA:313,0
DA:314,0
DA:315,0
DA:316,0
DA:323,0
DA:324,0
DA:325,0
DA:326,0
DA:327,0
DA:328,0
DA:329,0
DA:330,0
DA:331,0
DA:332,0
DA:333,0
DA:334,0
DA:335,0
DA:336,0
DA:337,0
DA:338,0
DA:339,0
DA:340,0
DA:341,0
DA:342,0
DA:343,0
DA:344,0
DA:346,0
DA:347,0
DA:348,0
DA:349,0
DA:350,0
DA:351,0
DA:352,0
DA:353,0
DA:354,0
DA:355,0
DA:356,0
DA:357,0
DA:360,0
DA:361,0
DA:363,0
DA:365,0
DA:366,0
DA:367,0
DA:368,0
DA:369,0
DA:370,0
DA:371,0
DA:372,0
DA:373,0
DA:376,0
DA:377,0
DA:380,0
DA:381,0
DA:382,0
DA:384,0
DA:385,0
DA:388,0
DA:389,0
DA:390,0
DA:391,0
DA:392,0
DA:393,0
DA:396,0
DA:397,0
DA:398,0
DA:399,0
DA:400,0
DA:401,0
DA:402,0
BRF:0
BRH:0
LF:308
LH:0
end_of_record
SF:/home/abdyhw/Documents/Grilles/inspection-multi-grilles-copy/inspection-officine/src-tauri/src/cloud_sync.rs
FN:167,_RNCNCNvMNtCs6hgwym0NSuY_19inspection_officine10cloud_syncNtB6_16CloudSyncService20fetch_remote_changes00B8_
FN:177,_RNCNCNvMNtCs6hgwym0NSuY_19inspection_officine10cloud_syncNtB6_16CloudSyncService20fetch_remote_changes0s0_0B8_
FN:170,_RNCNCNvMNtCs6hgwym0NSuY_19inspection_officine10cloud_syncNtB6_16CloudSyncService20fetch_remote_changes0s_0B8_
FN:144,_RNCNCNvMNtCs6hgwym0NSuY_19inspection_officine10cloud_syncNtB6_16CloudSyncService20send_change_to_cloud00B8_
FN:147,_RNCNCNvMNtCs6hgwym0NSuY_19inspection_officine10cloud_syncNtB6_16CloudSyncService20send_change_to_cloud0s_0B8_
FN:91,_RNCNvMNtCs6hgwym0NSuY_19inspection_officine10cloud_syncNtB4_16CloudSyncService13sync_to_cloud0B6_
FN:194,_RNCNvMNtCs6hgwym0NSuY_19inspection_officine10cloud_syncNtB4_16CloudSyncService15start_auto_sync0B6_
FN:65,_RNCNvMNtCs6hgwym0NSuY_19inspection_officine10cloud_syncNtB4_16CloudSyncService18check_connectivity0B6_
FN:155,_RNCNvMNtCs6hgwym0NSuY_19inspection_officine10cloud_syncNtB4_16CloudSyncService20fetch_remote_changes0B6_
FN:134,_RNCNvMNtCs6hgwym0NSuY_19inspection_officine10cloud_syncNtB4_16CloudSyncService20send_change_to_cloud0B6_
FN:91,_RNvMNtCs6hgwym0NSuY_19inspection_officine10cloud_syncNtB2_16CloudSyncService13sync_to_cloud
FN:194,_RNvMNtCs6hgwym0NSuY_19inspection_officine10cloud_syncNtB2_16CloudSyncService15start_auto_sync
FN:65,_RNvMNtCs6hgwym0NSuY_19inspection_officine10cloud_syncNtB2_16CloudSyncService18check_connectivity
FN:155,_RNvMNtCs6hgwym0NSuY_19inspection_officine10cloud_syncNtB2_16CloudSyncService20fetch_remote_changes
FN:134,_RNvMNtCs6hgwym0NSuY_19inspection_officine10cloud_syncNtB2_16CloudSyncService20send_change_to_cloud
FN:183,_RNvMNtCs6hgwym0NSuY_19inspection_officine10cloud_syncNtB2_16CloudSyncService20update_online_status
FN:189,_RNvMNtCs6hgwym0NSuY_19inspection_officine10cloud_syncNtB2_16CloudSyncService10get_status
FN:82,_RNvMNtCs6hgwym0NSuY_19inspection_officine10cloud_syncNtB2_16CloudSyncService18queue_local_change
FN:50,_RNvMNtCs6hgwym0NSuY_19inspection_officine10cloud_syncNtB2_16CloudSyncService3new
FN:255,_RNvNtNtCs6hgwym0NSuY_19inspection_officine10cloud_sync5testss_20test_change_queueing
FN:241,_RNvNtNtCs6hgwym0NSuY_19inspection_officine10cloud_sync5testss_20test_config_creation
FNDA:0,_RNCNCNvMNtCs6hgwym0NSuY_19inspection_officine10cloud_syncNtB6_16CloudSyncService20fetch_remote_changes00B8_
FNDA:0,_RNCNCNvMNtCs6hgwym0NSuY_19inspection_officine10cloud_syncNtB6_16CloudSyncService20fetch_remote_changes0s0_0B8_
FNDA:0,_RNCNCNvMNtCs6hgwym0NSuY_19inspection_officine10cloud_syncNtB6_16CloudSyncService20fetch_remote_changes0s_0B8_
FNDA:0,_RNCNCNvMNtCs6hgwym0NSuY_19inspection_officine10cloud_syncNtB6_16CloudSyncService20send_change_to_cloud00B8_
FNDA:0,_RNCNCNvMNtCs6hgwym0NSuY_19inspection_officine10cloud_syncNtB6_16CloudSyncService20send_change_to_cloud0s_0B8_
FNDA:0,_RNCNvMNtCs6hgwym0NSuY_19inspection_officine10cloud_syncNtB4_16CloudSyncService13sync_to_cloud0B6_
FNDA:0,_RNCNvMNtCs6hgwym0NSuY_19inspection_officine10cloud_syncNtB4_16CloudSyncService15start_auto_sync0B6_
FNDA:0,_RNCNvMNtCs6hgwym0NSuY_19inspection_officine10cloud_syncNtB4_16CloudSyncService18check_connectivity0B6_
FNDA:0,_RNCNvMNtCs6hgwym0NSuY_19inspection_officine10cloud_syncNtB4_16CloudSyncService20fetch_remote_changes0B6_
FNDA:0,_RNCNvMNtCs6hgwym0NSuY_19inspection_officine10cloud_syncNtB4_16CloudSyncService20send_change_to_cloud0B6_
FNDA:0,_RNvMNtCs6hgwym0NSuY_19inspection_officine10cloud_syncNtB2_16CloudSyncService13sync_to_cloud
FNDA:0,_RNvMNtCs6hgwym0NSuY_19inspection_officine10cloud_syncNtB2_16CloudSyncService15start_auto_sync
FNDA:0,_RNvMNtCs6hgwym0NSuY_19inspection_officine10cloud_syncNtB2_16CloudSyncService18check_connectivity
FNDA:0,_RNvMNtCs6hgwym0NSuY_19inspection_officine10cloud_syncNtB2_16CloudSyncService20fetch_remote_changes
FNDA:0,_RNvMNtCs6hgwym0NSuY_19inspection_officine10cloud_syncNtB2_16CloudSyncService20send_change_to_cloud
FNDA:0,_RNvMNtCs6hgwym0NSuY_19inspection_officine10cloud_syncNtB2_16CloudSyncService20update_online_status
FNDA:0,_RNvMNtCs6hgwym0NSuY_19inspection_officine10cloud_syncNtB2_16CloudSyncService10get_status
FNDA:0,_RNvMNtCs6hgwym0NSuY_19inspection_officine10cloud_syncNtB2_16CloudSyncService18queue_local_change
FNDA:0,_RNvMNtCs6hgwym0NSuY_19inspection_officine10cloud_syncNtB2_16CloudSyncService3new
FNDA:0,_RNvNtNtCs6hgwym0NSuY_19inspection_officine10cloud_sync5testss_20test_change_queueing
FNDA:0,_RNvNtNtCs6hgwym0NSuY_19inspection_officine10cloud_sync5testss_20test_config_creation
FNF:21
FNH:0
DA:50,0
DA:51,0
DA:52,0
DA:53,0
DA:54,0
DA:55,0
DA:56,0
DA:57,0
DA:58,0
DA:59,0
DA:60,0
DA:61,0
DA:62,0
DA:65,0
DA:66,0
DA:67,0
DA:68,0
DA:70,0
DA:71,0
DA:72,0
DA:73,0
DA:74,0
DA:76,0
DA:77,0
DA:79,0
DA:82,0
DA:83,0
DA:84,0
DA:86,0
DA:87,0
DA:88,0
DA:91,0
DA:92,0
DA:93,0
DA:94,0
DA:97,0
DA:98,0
DA:99,0
DA:102,0
DA:103,0
DA:104,0
DA:107,0
DA:108,0
DA:109,0
DA:110,0
DA:111,0
DA:112,0
DA:113,0
DA:117,0
DA:118,0
DA:119,0
DA:120,0
DA:123,0
DA:124,0
DA:125,0
DA:126,0
DA:127,0
DA:128,0
DA:130,0
DA:131,0
DA:134,0
DA:135,0
DA:137,0
DA:138,0
DA:139,0
DA:140,0
DA:141,0
DA:142,0
DA:143,0
DA:144,0
DA:146,0
DA:147,0
DA:148,0
DA:149,0
DA:151,0
DA:152,0
DA:155,0
DA:156,0
DA:157,0
DA:158,0
DA:160,0
DA:162,0
DA:163,0
DA:164,0
DA:165,0
DA:166,0
DA:167,0
DA:169,0
DA:170,0
DA:171,0
DA:172,0
DA:174,0
DA:175,0
DA:176,0
DA:177,0
DA:179,0
DA:180,0
DA:183,0
DA:184,0
DA:185,0
DA:186,0
DA:189,0
DA:190,0
DA:191,0
DA:194,0
DA:195,0
DA:196,0
DA:197,0
DA:200,0
DA:202,0
DA:203,0
DA:204,0
DA:206,0
DA:241,0
DA:242,0
DA:243,0
DA:244,0
DA:245,0
DA:246,0
DA:247,0
DA:248,0
DA:250,0
DA:251,0
DA:252,0
DA:255,0
DA:256,0
DA:257,0
DA:258,0
DA:259,0
DA:260,0
DA:261,0
DA:262,0
DA:264,0
DA:266,0
DA:267,0
DA:268,0
DA:269,0
DA:270,0
DA:271,0
DA:272,0
DA:274,0
DA:275,0
DA:276,0
DA:277,0
BRF:0
BRH:0
LF:154
LH:0
end_of_record
SF:/home/abdyhw/Documents/Grilles/inspection-multi-grilles-copy/inspection-officine/src-tauri/src/db.rs
FN:296,_RNCNvMNtCs6hgwym0NSuY_19inspection_officine2dbNtB4_8Database14export_to_json0B6_
FN:307,_RNCNvMNtCs6hgwym0NSuY_19inspection_officine2dbNtB4_8Database14export_to_jsons0_0B6_
FN:309,_RNCNvMNtCs6hgwym0NSuY_19inspection_officine2dbNtB4_8Database14export_to_jsons1_0B6_
FN:322,_RNCNvMNtCs6hgwym0NSuY_19inspection_officine2dbNtB4_8Database14export_to_jsons2_0B6_
FN:324,_RNCNvMNtCs6hgwym0NSuY_19inspection_officine2dbNtB4_8Database14export_to_jsons3_0B6_
FN:329,_RNCNvMNtCs6hgwym0NSuY_19inspection_officine2dbNtB4_8Database14export_to_jsons4_0B6_
FN:305,_RNCNvMNtCs6hgwym0NSuY_19inspection_officine2dbNtB4_8Database14export_to_jsons_0B6_
FN:17,_RNCNvMNtCs6hgwym0NSuY_19inspection_officine2dbNtB4_8Database3new0B6_
FN:251,_RNCNvMNtCs6hgwym0NSuY_19inspection_officine2dbNtB4_8Database3news0_0B6_
FN:256,_RNCNvMNtCs6hgwym0NSuY_19inspection_officine2dbNtB4_8Database3news1_0B6_
FN:257,_RNCNvMNtCs6hgwym0NSuY_19inspection_officine2dbNtB4_8Database3news2_0B6_
FN:259,_RNCNvMNtCs6hgwym0NSuY_19inspection_officine2dbNtB4_8Database3news3_0B6_
FN:36,_RNCNvMNtCs6hgwym0NSuY_19inspection_officine2dbNtB4_8Database3news_0B6_
FN:289,_RNCNvMNtCs6hgwym0NSuY_19inspection_officine2dbNtB4_8Database6backup0B6_
FN:291,_RNCNvMNtCs6hgwym0NSuY_19inspection_officine2dbNtB4_8Database6backups_0B6_
FN:295,_RNvMNtCs6hgwym0NSuY_19inspection_officine2dbNtB2_8Database14export_to_json
FN:11,_RNvMNtCs6hgwym0NSuY_19inspection_officine2dbNtB2_8Database3new
FN:288,_RNvMNtCs6hgwym0NSuY_19inspection_officine2dbNtB2_8Database6backup
FNDA:0,_RNCNvMNtCs6hgwym0NSuY_19inspection_officine2dbNtB4_8Database14export_to_json0B6_
FNDA:0,_RNCNvMNtCs6hgwym0NSuY_19inspection_officine2dbNtB4_8Database14export_to_jsons0_0B6_
FNDA:0,_RNCNvMNtCs6hgwym0NSuY_19inspection_officine2dbNtB4_8Database14export_to_jsons1_0B6_
FNDA:0,_RNCNvMNtCs6hgwym0NSuY_19inspection_officine2dbNtB4_8Database14export_to_jsons2_0B6_
FNDA:0,_RNCNvMNtCs6hgwym0NSuY_19inspection_officine2dbNtB4_8Database14export_to_jsons3_0B6_
FNDA:0,_RNCNvMNtCs6hgwym0NSuY_19inspection_officine2dbNtB4_8Database14export_to_jsons4_0B6_
FNDA:0,_RNCNvMNtCs6hgwym0NSuY_19inspection_officine2dbNtB4_8Database14export_to_jsons_0B6_
FNDA:0,_RNCNvMNtCs6hgwym0NSuY_19inspection_officine2dbNtB4_8Database3new0B6_
FNDA:0,_RNCNvMNtCs6hgwym0NSuY_19inspection_officine2dbNtB4_8Database3news0_0B6_
FNDA:0,_RNCNvMNtCs6hgwym0NSuY_19inspection_officine2dbNtB4_8Database3news1_0B6_
FNDA:0,_RNCNvMNtCs6hgwym0NSuY_19inspection_officine2dbNtB4_8Database3news2_0B6_
FNDA:0,_RNCNvMNtCs6hgwym0NSuY_19inspection_officine2dbNtB4_8Database3news3_0B6_
FNDA:0,_RNCNvMNtCs6hgwym0NSuY_19inspection_officine2dbNtB4_8Database3news_0B6_
FNDA:0,_RNCNvMNtCs6hgwym0NSuY_19inspection_officine2dbNtB4_8Database6backup0B6_
FNDA:0,_RNCNvMNtCs6hgwym0NSuY_19inspection_officine2dbNtB4_8Database6backups_0B6_
FNDA:0,_RNvMNtCs6hgwym0NSuY_19inspection_officine2dbNtB2_8Database14export_to_json
FNDA:0,_RNvMNtCs6hgwym0NSuY_19inspection_officine2dbNtB2_8Database3new
FNDA:0,_RNvMNtCs6hgwym0NSuY_19inspection_officine2dbNtB2_8Database6backup
FNF:18
FNH:0
DA:11,0
DA:12,0
DA:13,0
DA:16,0
DA:17,0
DA:19,0
DA:20,0
DA:23,0
DA:24,0
DA:27,0
DA:28,0
DA:29,0
DA:30,0
DA:31,0
DA:32,0
DA:33,0
DA:36,0
DA:37,0
DA:38,0
DA:39,0
DA:40,0
DA:42,0
DA:43,0
DA:44,0
DA:45,0
DA:46,0
DA:47,0
DA:48,0
DA:49,0
DA:50,0
DA:51,0
DA:52,0
DA:53,0
DA:54,0
DA:55,0
DA:56,0
DA:57,0
DA:58,0
DA:59,0
DA:60,0
DA:61,0
DA:62,0
DA:63,0
DA:64,0
DA:65,0
DA:66,0
DA:67,0
DA:68,0
DA:69,0
DA:70,0
DA:71,0
DA:72,0
DA:73,0
DA:74,0
DA:75,0
DA:76,0
DA:77,0
DA:78,0
DA:79,0
DA:80,0
DA:81,0
DA:82,0
DA:83,0
DA:84,0
DA:85,0
DA:86,0
DA:87,0
DA:88,0
DA:89,0
DA:90,0
DA:91,0
DA:92,0
DA:93,0
DA:94,0
DA:95,0
DA:96,0
DA:97,0
DA:98,0
DA:99,0
DA:100,0
DA:101,0
DA:102,0
DA:103,0
DA:104,0
DA:105,0
DA:106,0
DA:107,0
DA:108,0
DA:109,0
DA:110,0
DA:111,0
DA:112,0
DA:113,0
DA:114,0
DA:115,0
DA:116,0
DA:117,0
DA:118,0
DA:119,0
DA:120,0
DA:121,0
DA:122,0
DA:123,0
DA:124,0
DA:125,0
DA:126,0
DA:127,0
DA:128,0
DA:129,0
DA:130,0
DA:131,0
DA:132,0
DA:133,0
DA:134,0
DA:135,0
DA:136,0
DA:137,0
DA:138,0
DA:139,0
DA:140,0
DA:141,0
DA:142,0
DA:143,0
DA:144,0
DA:145,0
DA:146,0
DA:147,0
DA:148,0
DA:149,0
DA:150,0
DA:151,0
DA:152,0
DA:153,0
DA:154,0
DA:155,0
DA:156,0
DA:157,0
DA:158,0
DA:159,0
DA:160,0
DA:161,0
DA:162,0
DA:163,0
DA:164,0
DA:165,0
DA:166,0
DA:167,0
DA:168,0
DA:169,0
DA:170,0
DA:171,0
DA:172,0
DA:173,0
DA:174,0
DA:175,0
DA:176,0
DA:177,0
DA:178,0
DA:179,0
DA:180,0
DA:181,0
DA:182,0
DA:183,0
DA:184,0
DA:185,0
DA:186,0
DA:187,0
DA:188,0
DA:189,0
DA:190,0
DA:191,0
DA:192,0
DA:193,0
DA:194,0
DA:195,0
DA:196,0
DA:197,0
DA:198,0
DA:199,0
DA:200,0
DA:201,0
DA:202,0
DA:203,0
DA:204,0
DA:205,0
DA:206,0
DA:207,0
DA:208,0
DA:209,0
DA:210,0
DA:211,0
DA:212,0
DA:213,0
DA:214,0
DA:215,0
DA:216,0
DA:217,0
DA:218,0
DA:219,0
DA:220,0
DA:221,0
DA:222,0
DA:223,0
DA:224,0
DA:225,0
DA:226,0
DA:227,0
DA:228,0
DA:229,0
DA:232,0
DA:233,0
DA:234,0
DA:235,0
DA:236,0
DA:237,0
DA:238,0
DA:239,0
DA:240,0
DA:241,0
DA:242,0
DA:243,0
DA:244,0
DA:245,0
DA:246,0
DA:249,0
DA:250,0
DA:251,0
DA:252,0
DA:254,0
DA:256,0
DA:257,0
DA:258,0
DA:259,0
DA:260,0
DA:262,0
DA:263,0
DA:264,0
DA:265,0
DA:266,0
DA:267,0
DA:270,0
DA:271,0
DA:272,0
DA:273,0
DA:275,0
DA:276,0
DA:277,0
DA:278,0
DA:279,0
DA:280,0
DA:281,0
DA:282,0
DA:283,0
DA:285,0
DA:286,0
DA:288,0
DA:289,0
DA:290,0
DA:291,0
DA:292,0
DA:293,0
DA:295,0
DA:296,0
DA:298,0
DA:301,0
DA:303,0
DA:304,0
DA:305,0
DA:307,0
DA:309,0
DA:310,0
DA:311,0
DA:312,0
DA:313,0
DA:314,0
DA:315,0
DA:316,0
DA:317,0
DA:319,0
DA:321,0
DA:322,0
DA:323,0
DA:324,0
DA:326,0
DA:329,0
DA:330,0
BRF:0
BRH:0
LF:302
LH:0
end_of_record
SF:/home/abdyhw/Documents/Grilles/inspection-multi-grilles-copy/inspection-officine/src-tauri/src/grid.rs
FN:39,_RNvMNtCs6hgwym0NSuY_19inspection_officine4gridNtB2_16CriterionBuilder3new
FN:59,_RNvMNtCs6hgwym0NSuY_19inspection_officine4gridNtB2_16CriterionBuilder3pre
FN:54,_RNvMNtCs6hgwym0NSuY_19inspection_officine4gridNtB2_16CriterionBuilder4item
FN:43,_RNvMNtCs6hgwym0NSuY_19inspection_officine4gridNtB2_16CriterionBuilder4next
FNDA:0,_RNvMNtCs6hgwym0NSuY_19inspection_officine4gridNtB2_16CriterionBuilder3new
FNDA:0,_RNvMNtCs6hgwym0NSuY_19inspection_officine4gridNtB2_16CriterionBuilder3pre
FNDA:0,_RNvMNtCs6hgwym0NSuY_19inspection_officine4gridNtB2_16CriterionBuilder4item
FNDA:0,_RNvMNtCs6hgwym0NSuY_19inspection_officine4gridNtB2_16CriterionBuilder4next
FNF:4
FNH:0
DA:39,0
DA:40,0
DA:41,0
DA:43,0
DA:44,0
DA:45,0
DA:46,0
DA:47,0
DA:48,0
DA:49,0
DA:50,0
DA:51,0
DA:54,0
DA:55,0
DA:56,0
DA:59,0
DA:60,0
DA:61,0
BRF:0
BRH:0
LF:18
LH:0
end_of_record
SF:/home/abdyhw/Documents/Grilles/inspection-multi-grilles-copy/inspection-officine/src-tauri/src/grid_diff.rs
FN:187,_RNvNtNtCs6hgwym0NSuY_19inspection_officine9grid_diff5testss_28test_compare_grids_identical
FN:203,_RNvNtNtCs6hgwym0NSuY_19inspection_officine9grid_diff5testss_32test_compare_grids_added_section
FN:269,_RNvNtNtCs6hgwym0NSuY_19inspection_officine9grid_diff5testss_36test_compare_grids_removed_criterion
FN:238,_RNvNtNtCs6hgwym0NSuY_19inspection_officine9grid_diff5testss_37test_compare_grids_modified_criterion
FN:36,_RNvNtCs6hgwym0NSuY_19inspection_officine9grid_diff13compare_grids
FN:95,_RNCNCNvNtCs6hgwym0NSuY_19inspection_officine9grid_diff13compare_gridss0_00B7_
FN:100,_RNCNCNvNtCs6hgwym0NSuY_19inspection_officine9grid_diff13compare_gridss1_00B7_
FN:49,_RNCNvNtCs6hgwym0NSuY_19inspection_officine9grid_diff13compare_grids0B5_
FN:95,_RNCNvNtCs6hgwym0NSuY_19inspection_officine9grid_diff13compare_gridss0_0B5_
FN:100,_RNCNvNtCs6hgwym0NSuY_19inspection_officine9grid_diff13compare_gridss1_0B5_
FN:105,_RNCNvNtCs6hgwym0NSuY_19inspection_officine9grid_diff13compare_gridss2_0B5_
FN:110,_RNCNvNtCs6hgwym0NSuY_19inspection_officine9grid_diff13compare_gridss3_0B5_
FN:54,_RNCNvNtCs6hgwym0NSuY_19inspection_officine9grid_diff13compare_gridss_0B5_
FNDA:0,_RNvNtNtCs6hgwym0NSuY_19inspection_officine9grid_diff5testss_28test_compare_grids_identical
FNDA:0,_RNvNtNtCs6hgwym0NSuY_19inspection_officine9grid_diff5testss_32test_compare_grids_added_section
FNDA:0,_RNvNtNtCs6hgwym0NSuY_19inspection_officine9grid_diff5testss_36test_compare_grids_removed_criterion
FNDA:0,_RNvNtNtCs6hgwym0NSuY_19inspection_officine9grid_diff5testss_37test_compare_grids_modified_criterion
FNDA:0,_RNvNtCs6hgwym0NSuY_19inspection_officine9grid_diff13compare_grids
FNDA:0,_RNCNCNvNtCs6hgwym0NSuY_19inspection_officine9grid_diff13compare_gridss0_00B7_
FNDA:0,_RNCNCNvNtCs6hgwym0NSuY_19inspection_officine9grid_diff13compare_gridss1_00B7_
FNDA:0,_RNCNvNtCs6hgwym0NSuY_19inspection_officine9grid_diff13compare_grids0B5_
FNDA:0,_RNCNvNtCs6hgwym0NSuY_19inspection_officine9grid_diff13compare_gridss0_0B5_
FNDA:0,_RNCNvNtCs6hgwym0NSuY_19inspection_officine9grid_diff13compare_gridss1_0B5_
FNDA:0,_RNCNvNtCs6hgwym0NSuY_19inspection_officine9grid_diff13compare_gridss2_0B5_
FNDA:0,_RNCNvNtCs6hgwym0NSuY_19inspection_officine9grid_diff13compare_gridss3_0B5_
FNDA:0,_RNCNvNtCs6hgwym0NSuY_19inspection_officine9grid_diff13compare_gridss_0B5_
FNF:13
FNH:0
DA:36,0
DA:37,0
DA:38,0
DA:39,0
DA:40,0
DA:41,0
DA:42,0
DA:43,0
DA:44,0
DA:47,0
DA:48,0
DA:49,0
DA:50,0
DA:52,0
DA:53,0
DA:54,0
DA:55,0
DA:58,0
DA:59,0
DA:60,0
DA:61,0
DA:62,0
DA:63,0
DA:64,0
DA:65,0
DA:69,0
DA:70,0
DA:71,0
DA:72,0
DA:73,0
DA:74,0
DA:75,0
DA:76,0
DA:80,0
DA:81,0
DA:82,0
DA:83,0
DA:84,0
DA:85,0
DA:86,0
DA:87,0
DA:88,0
DA:89,0
DA:93,0
DA:94,0
DA:95,0
DA:96,0
DA:98,0
DA:99,0
DA:100,0
DA:101,0
DA:103,0
DA:104,0
DA:105,0
DA:106,0
DA:108,0
DA:109,0
DA:110,0
DA:111,0
DA:114,0
DA:115,0
DA:116,0
DA:117,0
DA:118,0
DA:119,0
DA:120,0
DA:121,0
DA:122,0
DA:123,0
DA:124,0
DA:125,0
DA:129,0
DA:130,0
DA:131,0
DA:132,0
DA:133,0
DA:134,0
DA:135,0
DA:136,0
DA:137,0
DA:138,0
DA:139,0
DA:140,0
DA:144,0
DA:145,0
DA:146,0
DA:147,0
DA:148,0
DA:149,0
DA:151,0
DA:152,0
DA:153,0
DA:154,0
DA:155,0
DA:156,0
DA:157,0
DA:158,0
DA:159,0
DA:160,0
DA:161,0
DA:162,0
DA:164,0
DA:165,0
DA:166,0
DA:167,0
DA:168,0
DA:169,0
DA:170,0
DA:171,0
DA:172,0
DA:173,0
DA:174,0
DA:175,0
DA:178,0
DA:179,0
DA:187,0
DA:188,0
DA:189,0
DA:190,0
DA:191,0
DA:192,0
DA:193,0
DA:194,0
DA:195,0
DA:196,0
DA:197,0
DA:198,0
DA:199,0
DA:200,0
DA:203,0
DA:204,0
DA:205,0
DA:206,0
DA:207,0
DA:208,0
DA:209,0
DA:210,0
DA:211,0
DA:212,0
DA:213,0
DA:214,0
DA:215,0
DA:216,0
DA:217,0
DA:218,0
DA:219,0
DA:220,0
DA:221,0
DA:222,0
DA:223,0
DA:224,0
DA:225,0
DA:226,0
DA:227,0
DA:228,0
DA:229,0
DA:230,0
DA:231,0
DA:233,0
DA:234,0
DA:235,0
DA:238,0
DA:239,0
DA:240,0
DA:241,0
DA:242,0
DA:243,0
DA:244,0
DA:245,0
DA:246,0
DA:247,0
DA:248,0
DA:249,0
DA:250,0
DA:251,0
DA:252,0
DA:253,0
DA:254,0
DA:255,0
DA:256,0
DA:257,0
DA:258,0
DA:259,0
DA:260,0
DA:261,0
DA:262,0
DA:263,0
DA:265,0
DA:266,0
DA:269,0
DA:270,0
DA:271,0
DA:272,0
DA:273,0
DA:274,0
DA:275,0
DA:276,0
DA:277,0
DA:278,0
DA:279,0
DA:280,0
DA:281,0
DA:282,0
DA:283,0
DA:284,0
DA:285,0
DA:286,0
DA:287,0
DA:288,0
DA:289,0
DA:290,0
DA:291,0
DA:292,0
DA:293,0
DA:294,0
DA:295,0
DA:296,0
DA:297,0
DA:298,0
DA:299,0
DA:300,0
BRF:0
BRH:0
LF:229
LH:0
end_of_record
SF:/home/abdyhw/Documents/Grilles/inspection-multi-grilles-copy/inspection-officine/src-tauri/src/grids/clinique.rs
FN:8,_RNvNtNtCs6hgwym0NSuY_19inspection_officine5grids8clinique5build
FNDA:0,_RNvNtNtCs6hgwym0NSuY_19inspection_officine5grids8clinique5build
FNF:1
FNH:0
DA:8,0
DA:9,0
DA:11,0
DA:12,0
DA:13,0
DA:14,0
DA:15,0
DA:16,0
DA:17,0
DA:18,0
DA:19,0
DA:20,0
DA:21,0
DA:22,0
DA:23,0
DA:24,0
DA:25,0
DA:26,0
DA:27,0
DA:28,0
DA:29,0
DA:30,0
DA:31,0
DA:32,0
DA:33,0
DA:34,0
DA:35,0
DA:36,0
DA:37,0
DA:38,0
DA:39,0
DA:40,0
DA:41,0
DA:42,0
DA:43,0
DA:44,0
DA:45,0
DA:46,0
DA:47,0
DA:48,0
DA:49,0
DA:50,0
DA:51,0
DA:52,0
DA:53,0
DA:54,0
DA:55,0
DA:56,0
DA:57,0
DA:58,0
DA:59,0
DA:60,0
DA:61,0
DA:62,0
DA:63,0
DA:64,0
DA:65,0
DA:66,0
DA:67,0
DA:68,0
DA:69,0
DA:70,0
DA:71,0
DA:72,0
DA:73,0
DA:74,0
DA:75,0
DA:76,0
DA:77,0
DA:78,0
DA:79,0
DA:80,0
DA:81,0
DA:82,0
DA:83,0
DA:84,0
DA:85,0
DA:86,0
DA:87,0
DA:88,0
DA:89,0
DA:90,0
DA:91,0
DA:92,0
DA:93,0
DA:94,0
DA:95,0
DA:96,0
DA:97,0
DA:98,0
DA:99,0
DA:100,0
DA:101,0
DA:102,0
DA:103,0
DA:104,0
DA:105,0
DA:106,0
DA:107,0
DA:108,0
DA:109,0
DA:110,0
DA:111,0
DA:112,0
DA:113,0
DA:114,0
DA:115,0
DA:116,0
DA:117,0
DA:118,0
DA:119,0
DA:120,0
DA:121,0
DA:122,0
DA:123,0
DA:124,0
DA:125,0
DA:126,0
DA:127,0
DA:128,0
DA:129,0
DA:130,0
DA:131,0
DA:132,0
DA:133,0
DA:134,0
DA:135,0
DA:136,0
DA:137,0
DA:138,0
DA:139,0
DA:140,0
DA:141,0
DA:142,0
DA:143,0
DA:144,0
DA:145,0
DA:146,0
DA:147,0
DA:148,0
DA:149,0
DA:150,0
DA:151,0
DA:152,0
DA:153,0
DA:154,0
DA:155,0
DA:156,0
DA:157,0
DA:158,0
DA:159,0
DA:160,0
DA:161,0
DA:162,0
DA:163,0
DA:164,0
DA:165,0
DA:166,0
DA:167,0
DA:168,0
DA:169,0
DA:170,0
DA:171,0
DA:172,0
DA:173,0
DA:174,0
DA:175,0
DA:176,0
DA:177,0
DA:178,0
DA:179,0
DA:180,0
DA:181,0
DA:182,0
DA:183,0
DA:184,0
DA:185,0
DA:186,0
DA:187,0
DA:188,0
DA:189,0
DA:190,0
DA:191,0
BRF:0
BRH:0
LF:183
LH:0
end_of_record
SF:/home/abdyhw/Documents/Grilles/inspection-multi-grilles-copy/inspection-officine/src-tauri/src/grids/grossiste.rs
FN:3,_RNvNtNtCs6hgwym0NSuY_19inspection_officine5grids9grossiste5build
FNDA:0,_RNvNtNtCs6hgwym0NSuY_19inspection_officine5grids9grossiste5build
FNF:1
FNH:0
DA:3,0
DA:4,0
DA:6,0
DA:7,0
DA:8,0
DA:9,0
DA:10,0
DA:11,0
DA:12,0
DA:13,0
DA:14,0
DA:15,0
DA:16,0
DA:17,0
DA:18,0
DA:19,0
DA:20,0
DA:21,0
DA:22,0
DA:23,0
DA:24,0
DA:25,0
DA:26,0
DA:27,0
DA:28,0
DA:29,0
DA:30,0
DA:31,0
DA:32,0
DA:33,0
DA:34,0
DA:35,0
DA:36,0
DA:37,0
DA:38,0
DA:39,0
DA:40,0
DA:41,0
DA:42,0
DA:43,0
DA:44,0
DA:45,0
DA:46,0
DA:47,0
DA:48,0
DA:49,0
DA:50,0
DA:51,0
DA:52,0
DA:53,0
DA:54,0
DA:55,0
DA:56,0
DA:57,0
DA:58,0
DA:59,0
DA:60,0
DA:61,0
DA:62,0
DA:63,0
DA:64,0
DA:65,0
DA:66,0
DA:67,0
DA:68,0
DA:69,0
DA:70,0
DA:71,0
DA:72,0
DA:73,0
DA:74,0
DA:75,0
DA:76,0
DA:77,0
DA:78,0
DA:79,0
DA:80,0
DA:81,0
DA:82,0
DA:83,0
DA:84,0
DA:85,0
DA:86,0
DA:87,0
DA:88,0
DA:89,0
DA:90,0
DA:91,0
DA:92,0
DA:93,0
DA:94,0
DA:95,0
DA:96,0
DA:97,0
DA:98,0
DA:99,0
DA:100,0
DA:101,0
DA:102,0
DA:103,0
DA:104,0
DA:105,0
DA:106,0
DA:107,0
DA:108,0
DA:109,0
DA:110,0
DA:111,0
DA:112,0
DA:113,0
DA:114,0
DA:115,0
DA:116,0
DA:117,0
DA:118,0
DA:119,0
DA:120,0
DA:121,0
DA:122,0
DA:123,0
DA:124,0
DA:125,0
DA:126,0
DA:127,0
DA:128,0
DA:129,0
DA:130,0
DA:131,0
DA:132,0
DA:133,0
DA:134,0
DA:135,0
DA:136,0
DA:137,0
DA:138,0
DA:139,0
DA:140,0
DA:141,0
DA:142,0
DA:143,0
DA:144,0
DA:145,0
DA:146,0
DA:147,0
DA:148,0
DA:149,0
DA:150,0
DA:151,0
DA:152,0
DA:153,0
DA:154,0
DA:155,0
DA:156,0
DA:157,0
DA:158,0
DA:159,0
DA:160,0
DA:161,0
DA:162,0
DA:163,0
DA:164,0
DA:165,0
DA:166,0
DA:167,0
DA:168,0
DA:169,0
DA:170,0
DA:171,0
DA:172,0
DA:173,0
DA:174,0
DA:175,0
DA:176,0
DA:177,0
DA:178,0
DA:179,0
DA:180,0
DA:181,0
DA:182,0
DA:183,0
DA:184,0
DA:185,0
DA:186,0
DA:187,0
DA:188,0
BRF:0
BRH:0
LF:185
LH:0
end_of_record
SF:/home/abdyhw/Documents/Grilles/inspection-multi-grilles-copy/inspection-officine/src-tauri/src/grids/hopital.rs
FN:8,_RNvNtNtCs6hgwym0NSuY_19inspection_officine5grids7hopital5build
FNDA:0,_RNvNtNtCs6hgwym0NSuY_19inspection_officine5grids7hopital5build
FNF:1
FNH:0
DA:8,0
DA:9,0
DA:11,0
DA:12,0
DA:13,0
DA:14,0
DA:15,0
DA:16,0
DA:17,0
DA:18,0
DA:19,0
DA:20,0
DA:21,0
DA:22,0
DA:23,0
DA:24,0
DA:25,0
DA:26,0
DA:27,0
DA:28,0
DA:29,0
DA:30,0
DA:31,0
DA:32,0
DA:33,0
DA:34,0
DA:35,0
DA:36,0
DA:37,0
DA:38,0
DA:39,0
DA:40,0
DA:41,0
DA:42,0
DA:43,0
DA:44,0
DA:45,0
DA:46,0
DA:47,0
DA:48,0
DA:49,0
DA:50,0
DA:51,0
DA:52,0
DA:53,0
DA:54,0
DA:55,0
DA:56,0
DA:57,0
DA:58,0
DA:59,0
DA:60,0
DA:61,0
DA:62,0
DA:63,0
DA:64,0
DA:65,0
DA:66,0
DA:67,0
DA:68,0
DA:69,0
DA:70,0
DA:71,0
DA:72,0
DA:73,0
DA:74,0
DA:75,0
DA:76,0
DA:77,0
DA:78,0
DA:79,0
DA:80,0
DA:81,0
DA:82,0
DA:83,0
DA:84,0
DA:85,0
DA:86,0
DA:87,0
DA:88,0
DA:89,0
DA:90,0
DA:91,0
DA:92,0
DA:93,0
DA:94,0
DA:95,0
DA:96,0
DA:97,0
DA:98,0
DA:99,0
DA:100,0
DA:101,0
DA:102,0
DA:103,0
DA:104,0
DA:105,0
DA:106,0
DA:107,0
DA:108,0
DA:109,0
DA:110,0
DA:111,0
DA:112,0
DA:113,0
DA:114,0
DA:115,0
DA:116,0
DA:117,0
DA:118,0
DA:119,0
DA:120,0
DA:121,0
DA:122,0
DA:123,0
DA:124,0
DA:125,0
DA:126,0
DA:127,0
DA:128,0
DA:129,0
DA:130,0
DA:131,0
DA:132,0
DA:133,0
DA:134,0
DA:135,0
DA:136,0
DA:137,0
DA:138,0
DA:139,0
DA:140,0
DA:141,0
DA:142,0
DA:143,0
DA:144,0
DA:145,0
DA:146,0
DA:147,0
DA:148,0
DA:149,0
DA:150,0
DA:151,0
DA:152,0
DA:153,0
DA:154,0
DA:155,0
DA:156,0
DA:157,0
DA:158,0
DA:159,0
DA:160,0
DA:161,0
DA:162,0
DA:163,0
DA:164,0
DA:165,0
DA:166,0
DA:167,0
DA:168,0
DA:169,0
DA:170,0
DA:171,0
DA:172,0
DA:173,0
DA:174,0
DA:175,0
DA:176,0
DA:177,0
DA:178,0
DA:179,0
DA:180,0
DA:181,0
DA:182,0
DA:183,0
DA:184,0
DA:185,0
DA:186,0
DA:187,0
DA:188,0
DA:189,0
DA:190,0
DA:191,0
BRF:0
BRH:0
LF:183
LH:0
end_of_record
SF:/home/abdyhw/Documents/Grilles/inspection-multi-grilles-copy/inspection-officine/src-tauri/src/grids/officine.rs
FN:3,_RNvNtNtCs6hgwym0NSuY_19inspection_officine5grids8officine5build
FNDA:0,_RNvNtNtCs6hgwym0NSuY_19inspection_officine5grids8officine5build
FNF:1
FNH:0
DA:3,0
DA:4,0
DA:6,0
DA:7,0
DA:8,0
DA:9,0
DA:10,0
DA:11,0
DA:12,0
DA:13,0
DA:14,0
DA:15,0
DA:16,0
DA:17,0
DA:18,0
DA:19,0
DA:20,0
DA:21,0
DA:22,0
DA:23,0
DA:24,0
DA:25,0
DA:26,0
DA:27,0
DA:28,0
DA:29,0
DA:30,0
DA:31,0
DA:32,0
DA:33,0
DA:34,0
DA:35,0
DA:36,0
DA:37,0
DA:38,0
DA:39,0
DA:40,0
DA:41,0
DA:42,0
DA:43,0
DA:44,0
DA:45,0
DA:46,0
DA:47,0
DA:48,0
DA:49,0
DA:50,0
DA:51,0
DA:52,0
DA:53,0
DA:54,0
DA:55,0
DA:56,0
DA:57,0
DA:58,0
DA:59,0
DA:60,0
DA:61,0
DA:62,0
DA:63,0
DA:64,0
DA:65,0
DA:66,0
DA:67,0
DA:68,0
DA:69,0
DA:70,0
DA:71,0
DA:72,0
DA:73,0
DA:74,0
DA:75,0
DA:76,0
DA:77,0
DA:78,0
DA:79,0
DA:80,0
DA:81,0
DA:82,0
DA:83,0
DA:84,0
DA:85,0
DA:86,0
DA:87,0
DA:88,0
DA:89,0
DA:90,0
DA:91,0
DA:92,0
DA:93,0
DA:94,0
DA:95,0
DA:96,0
DA:97,0
DA:98,0
DA:99,0
DA:100,0
DA:101,0
DA:102,0
DA:103,0
DA:104,0
DA:105,0
DA:106,0
DA:107,0
DA:108,0
DA:109,0
DA:110,0
DA:111,0
DA:112,0
DA:113,0
DA:114,0
DA:115,0
DA:116,0
DA:117,0
DA:118,0
DA:119,0
DA:120,0
DA:121,0
DA:122,0
DA:123,0
DA:124,0
DA:125,0
DA:126,0
DA:127,0
DA:128,0
DA:129,0
DA:130,0
DA:131,0
DA:132,0
DA:133,0
DA:134,0
DA:135,0
DA:136,0
DA:137,0
DA:138,0
DA:139,0
DA:140,0
DA:141,0
DA:142,0
DA:143,0
DA:144,0
DA:145,0
DA:146,0
DA:147,0
BRF:0
BRH:0
LF:144
LH:0
end_of_record
SF:/home/abdyhw/Documents/Grilles/inspection-multi-grilles-copy/inspection-officine/src-tauri/src/grids_db.rs
FN:744,_RNvNtNtCs6hgwym0NSuY_19inspection_officine8grids_db5tests16create_test_user
FN:633,_RNvNtNtCs6hgwym0NSuY_19inspection_officine8grids_db5tests19create_test_grid_db
FN:866,_RNvNtNtCs6hgwym0NSuY_19inspection_officine8grids_db5testss_17test_archive_grid
FN:960,_RNvNtNtCs6hgwym0NSuY_19inspection_officine8grids_db5testss_20test_versioning_grid
FN:822,_RNvNtNtCs6hgwym0NSuY_19inspection_officine8grids_db5testss_21test_load_grids_empty
FN:1066,_RNvNtNtCs6hgwym0NSuY_19inspection_officine8grids_db5testss_21test_update_grid_meta
FN:758,_RNvNtNtCs6hgwym0NSuY_19inspection_officine8grids_db5testss_23test_save_and_load_grid
FN:831,_RNvNtNtCs6hgwym0NSuY_19inspection_officine8grids_db5testss_24test_load_multiple_grids
FN:1015,_RNvNtNtCs6hgwym0NSuY_19inspection_officine8grids_db5testss_26test_rollback_grid_version
FN:899,_RNvNtNtCs6hgwym0NSuY_19inspection_officine8grids_db5testss_30test_find_grid_by_id_not_found
FN:908,_RNvNtNtCs6hgwym0NSuY_19inspection_officine8grids_db5testss_32test_export_and_import_grid_json
FN:1102,_RNvNtNtCs6hgwym0NSuY_19inspection_officine8grids_db5testss_34test_find_grid_by_specific_version
FN:326,_RNCNvNtCs6hgwym0NSuY_19inspection_officine8grids_db12archive_grid0B5_
FN:334,_RNCNvNtCs6hgwym0NSuY_19inspection_officine8grids_db12archive_grids_0B5_
FN:456,_RNCNvNtCs6hgwym0NSuY_19inspection_officine8grids_db13list_versions0B5_
FN:463,_RNCNvNtCs6hgwym0NSuY_19inspection_officine8grids_db13list_versionss0_0B5_
FN:465,_RNCNvNtCs6hgwym0NSuY_19inspection_officine8grids_db13list_versionss1_0B5_
FN:468,_RNCNvNtCs6hgwym0NSuY_19inspection_officine8grids_db13list_versionss2_0B5_
FN:461,_RNCNvNtCs6hgwym0NSuY_19inspection_officine8grids_db13list_versionss_0B5_
FN:381,_RNCNvNtCs6hgwym0NSuY_19inspection_officine8grids_db14create_version0B5_
FN:388,_RNCNvNtCs6hgwym0NSuY_19inspection_officine8grids_db14create_versions0_0B5_
FN:402,_RNCNvNtCs6hgwym0NSuY_19inspection_officine8grids_db14create_versions1_0B5_
FN:412,_RNCNvNtCs6hgwym0NSuY_19inspection_officine8grids_db14create_versions2_0B5_
FN:420,_RNCNvNtCs6hgwym0NSuY_19inspection_officine8grids_db14create_versions3_0B5_
FN:428,_RNCNvNtCs6hgwym0NSuY_19inspection_officine8grids_db14create_versions4_0B5_
FN:436,_RNCNvNtCs6hgwym0NSuY_19inspection_officine8grids_db14create_versions5_0B5_
FN:394,_RNCNvNtCs6hgwym0NSuY_19inspection_officine8grids_db14create_versions6_0B5_
FN:387,_RNCNvNtCs6hgwym0NSuY_19inspection_officine8grids_db14create_versions_0B5_
FN:125,_RNCNvNtCs6hgwym0NSuY_19inspection_officine8grids_db15find_grid_by_id0B5_
FN:138,_RNCNvNtCs6hgwym0NSuY_19inspection_officine8grids_db15find_grid_by_ids0_0B5_
FN:127,_RNCNvNtCs6hgwym0NSuY_19inspection_officine8grids_db15find_grid_by_ids_0B5_
FN:601,_RNCNvNtCs6hgwym0NSuY_19inspection_officine8grids_db16export_grid_json0B5_
FN:253,_RNCNvNtCs6hgwym0NSuY_19inspection_officine8grids_db16update_grid_meta0B5_
FN:297,_RNCNvNtCs6hgwym0NSuY_19inspection_officine8grids_db16update_grid_metas0_0B5_
FN:301,_RNCNvNtCs6hgwym0NSuY_19inspection_officine8grids_db16update_grid_metas1_0B5_
FN:291,_RNCNvNtCs6hgwym0NSuY_19inspection_officine8grids_db16update_grid_metas_0B5_
FN:363,_RNCNvNtCs6hgwym0NSuY_19inspection_officine8grids_db17get_grid_snapshot0B5_
FN:366,_RNCNvNtCs6hgwym0NSuY_19inspection_officine8grids_db17get_grid_snapshots0_0B5_
FN:367,_RNCNvNtCs6hgwym0NSuY_19inspection_officine8grids_db17get_grid_snapshots1_0B5_
FN:364,_RNCNvNtCs6hgwym0NSuY_19inspection_officine8grids_db17get_grid_snapshots_0B5_
FN:24,_RNCNvNtCs6hgwym0NSuY_19inspection_officine8grids_db18load_grids_from_db0B5_
FN:50,_RNCNvNtCs6hgwym0NSuY_19inspection_officine8grids_db18load_grids_from_dbs_0B5_
FN:497,_RNCNvNtCs6hgwym0NSuY_19inspection_officine8grids_db19rollback_to_version0B5_
FN:510,_RNCNvNtCs6hgwym0NSuY_19inspection_officine8grids_db19rollback_to_versions0_0B5_
FN:511,_RNCNvNtCs6hgwym0NSuY_19inspection_officine8grids_db19rollback_to_versions1_0B5_
FN:524,_RNCNvNtCs6hgwym0NSuY_19inspection_officine8grids_db19rollback_to_versions2_0B5_
FN:540,_RNCNvNtCs6hgwym0NSuY_19inspection_officine8grids_db19rollback_to_versions3_0B5_
FN:548,_RNCNvNtCs6hgwym0NSuY_19inspection_officine8grids_db19rollback_to_versions4_0B5_
FN:565,_RNCNvNtCs6hgwym0NSuY_19inspection_officine8grids_db19rollback_to_versions5_0B5_
FN:580,_RNCNvNtCs6hgwym0NSuY_19inspection_officine8grids_db19rollback_to_versions6_0B5_
FN:516,_RNCNvNtCs6hgwym0NSuY_19inspection_officine8grids_db19rollback_to_versions7_0B5_
FN:504,_RNCNvNtCs6hgwym0NSuY_19inspection_officine8grids_db19rollback_to_versions_0B5_
FN:477,_RNCNvNtCs6hgwym0NSuY_19inspection_officine8grids_db20get_version_snapshot0B5_
FN:483,_RNCNvNtCs6hgwym0NSuY_19inspection_officine8grids_db20get_version_snapshots0_0B5_
FN:486,_RNCNvNtCs6hgwym0NSuY_19inspection_officine8grids_db20get_version_snapshots1_0B5_
FN:482,_RNCNvNtCs6hgwym0NSuY_19inspection_officine8grids_db20get_version_snapshots_0B5_
FN:615,_RNCNvNtCs6hgwym0NSuY_19inspection_officine8grids_db21import_grid_from_json0B5_
FN:65,_RNCNvNtCs6hgwym0NSuY_19inspection_officine8grids_db26load_grid_sections_from_db0B5_
FN:80,_RNCNvNtCs6hgwym0NSuY_19inspection_officine8grids_db26load_grid_sections_from_dbs0_0B5_
FN:83,_RNCNvNtCs6hgwym0NSuY_19inspection_officine8grids_db26load_grid_sections_from_dbs1_0B5_
FN:67,_RNCNvNtCs6hgwym0NSuY_19inspection_officine8grids_db26load_grid_sections_from_dbs_0B5_
FN:98,_RNCNvNtCs6hgwym0NSuY_19inspection_officine8grids_db29load_section_criteria_from_db0B5_
FN:107,_RNCNvNtCs6hgwym0NSuY_19inspection_officine8grids_db29load_section_criteria_from_dbs0_0B5_
FN:110,_RNCNvNtCs6hgwym0NSuY_19inspection_officine8grids_db29load_section_criteria_from_dbs1_0B5_
FN:100,_RNCNvNtCs6hgwym0NSuY_19inspection_officine8grids_db29load_section_criteria_from_dbs_0B5_
FN:173,_RNCNvNtCs6hgwym0NSuY_19inspection_officine8grids_db9save_grid0B5_
FN:197,_RNCNvNtCs6hgwym0NSuY_19inspection_officine8grids_db9save_grids0_0B5_
FN:214,_RNCNvNtCs6hgwym0NSuY_19inspection_officine8grids_db9save_grids1_0B5_
FN:220,_RNCNvNtCs6hgwym0NSuY_19inspection_officine8grids_db9save_grids2_0B5_
FN:226,_RNCNvNtCs6hgwym0NSuY_19inspection_officine8grids_db9save_grids3_0B5_
FN:189,_RNCNvNtCs6hgwym0NSuY_19inspection_officine8grids_db9save_grids_0B5_
FN:320,_RNvNtCs6hgwym0NSuY_19inspection_officine8grids_db12archive_grid
FN:452,_RNvNtCs6hgwym0NSuY_19inspection_officine8grids_db13list_versions
FN:374,_RNvNtCs6hgwym0NSuY_19inspection_officine8grids_db14create_version
FN:114,_RNvNtCs6hgwym0NSuY_19inspection_officine8grids_db15find_grid_by_id
FN:596,_RNvNtCs6hgwym0NSuY_19inspection_officine8grids_db16export_grid_json
FN:243,_RNvNtCs6hgwym0NSuY_19inspection_officine8grids_db16update_grid_meta
FN:350,_RNvNtCs6hgwym0NSuY_19inspection_officine8grids_db17get_grid_snapshot
FN:9,_RNvNtCs6hgwym0NSuY_19inspection_officine8grids_db18load_grids_from_db
FN:490,_RNvNtCs6hgwym0NSuY_19inspection_officine8grids_db19rollback_to_version
FN:472,_RNvNtCs6hgwym0NSuY_19inspection_officine8grids_db20get_version_snapshot
FN:608,_RNvNtCs6hgwym0NSuY_19inspection_officine8grids_db21import_grid_from_json
FN:56,_RNvNtCs6hgwym0NSuY_19inspection_officine8grids_db26load_grid_sections_from_db
FN:87,_RNvNtCs6hgwym0NSuY_19inspection_officine8grids_db29load_section_criteria_from_db
FN:167,_RNvNtCs6hgwym0NSuY_19inspection_officine8grids_db9save_grid
FNDA:0,_RNvNtNtCs6hgwym0NSuY_19inspection_officine8grids_db5tests16create_test_user
FNDA:0,_RNvNtNtCs6hgwym0NSuY_19inspection_officine8grids_db5tests19create_test_grid_db
FNDA:0,_RNvNtNtCs6hgwym0NSuY_19inspection_officine8grids_db5testss_17test_archive_grid
FNDA:0,_RNvNtNtCs6hgwym0NSuY_19inspection_officine8grids_db5testss_20test_versioning_grid
FNDA:0,_RNvNtNtCs6hgwym0NSuY_19inspection_officine8grids_db5testss_21test_load_grids_empty
FNDA:0,_RNvNtNtCs6hgwym0NSuY_19inspection_officine8grids_db5testss_21test_update_grid_meta
FNDA:0,_RNvNtNtCs6hgwym0NSuY_19inspection_officine8grids_db5testss_23test_save_and_load_grid
FNDA:0,_RNvNtNtCs6hgwym0NSuY_19inspection_officine8grids_db5testss_24test_load_multiple_grids
FNDA:0,_RNvNtNtCs6hgwym0NSuY_19inspection_officine8grids_db5testss_26test_rollback_grid_version
FNDA:0,_RNvNtNtCs6hgwym0NSuY_19inspection_officine8grids_db5testss_30test_find_grid_by_id_not_found
FNDA:0,_RNvNtNtCs6hgwym0NSuY_19inspection_officine8grids_db5testss_32test_export_and_import_grid_json
FNDA:0,_RNvNtNtCs6hgwym0NSuY_19inspection_officine8grids_db5testss_34test_find_grid_by_specific_version
FNDA:0,_RNCNvNtCs6hgwym0NSuY_19inspection_officine8grids_db12archive_grid0B5_
FNDA:0,_RNCNvNtCs6hgwym0NSuY_19inspection_officine8grids_db12archive_grids_0B5_
FNDA:0,_RNCNvNtCs6hgwym0NSuY_19inspection_officine8grids_db13list_versions0B5_
FNDA:0,_RNCNvNtCs6hgwym0NSuY_19inspection_officine8grids_db13list_versionss0_0B5_
FNDA:0,_RNCNvNtCs6hgwym0NSuY_19inspection_officine8grids_db13list_versionss1_0B5_
FNDA:0,_RNCNvNtCs6hgwym0NSuY_19inspection_officine8grids_db13list_versionss2_0B5_
FNDA:0,_RNCNvNtCs6hgwym0NSuY_19inspection_officine8grids_db13list_versionss_0B5_
FNDA:0,_RNCNvNtCs6hgwym0NSuY_19inspection_officine8grids_db14create_version0B5_
FNDA:0,_RNCNvNtCs6hgwym0NSuY_19inspection_officine8grids_db14create_versions0_0B5_
FNDA:0,_RNCNvNtCs6hgwym0NSuY_19inspection_officine8grids_db14create_versions1_0B5_
FNDA:0,_RNCNvNtCs6hgwym0NSuY_19inspection_officine8grids_db14create_versions2_0B5_
FNDA:0,_RNCNvNtCs6hgwym0NSuY_19inspection_officine8grids_db14create_versions3_0B5_
FNDA:0,_RNCNvNtCs6hgwym0NSuY_19inspection_officine8grids_db14create_versions4_0B5_
FNDA:0,_RNCNvNtCs6hgwym0NSuY_19inspection_officine8grids_db14create_versions5_0B5_
FNDA:0,_RNCNvNtCs6hgwym0NSuY_19inspection_officine8grids_db14create_versions6_0B5_
FNDA:0,_RNCNvNtCs6hgwym0NSuY_19inspection_officine8grids_db14create_versions_0B5_
FNDA:0,_RNCNvNtCs6hgwym0NSuY_19inspection_officine8grids_db15find_grid_by_id0B5_
FNDA:0,_RNCNvNtCs6hgwym0NSuY_19inspection_officine8grids_db15find_grid_by_ids0_0B5_
FNDA:0,_RNCNvNtCs6hgwym0NSuY_19inspection_officine8grids_db15find_grid_by_ids_0B5_
FNDA:0,_RNCNvNtCs6hgwym0NSuY_19inspection_officine8grids_db16export_grid_json0B5_
FNDA:0,_RNCNvNtCs6hgwym0NSuY_19inspection_officine8grids_db16update_grid_meta0B5_
FNDA:0,_RNCNvNtCs6hgwym0NSuY_19inspection_officine8grids_db16update_grid_metas0_0B5_
FNDA:0,_RNCNvNtCs6hgwym0NSuY_19inspection_officine8grids_db16update_grid_metas1_0B5_
FNDA:0,_RNCNvNtCs6hgwym0NSuY_19inspection_officine8grids_db16update_grid_metas_0B5_
FNDA:0,_RNCNvNtCs6hgwym0NSuY_19inspection_officine8grids_db17get_grid_snapshot0B5_
FNDA:0,_RNCNvNtCs6hgwym0NSuY_19inspection_officine8grids_db17get_grid_snapshots0_0B5_
FNDA:0,_RNCNvNtCs6hgwym0NSuY_19inspection_officine8grids_db17get_grid_snapshots1_0B5_
FNDA:0,_RNCNvNtCs6hgwym0NSuY_19inspection_officine8grids_db17get_grid_snapshots_0B5_
FNDA:0,_RNCNvNtCs6hgwym0NSuY_19inspection_officine8grids_db18load_grids_from_db0B5_
FNDA:0,_RNCNvNtCs6hgwym0NSuY_19inspection_officine8grids_db18load_grids_from_dbs_0B5_
FNDA:0,_RNCNvNtCs6hgwym0NSuY_19inspection_officine8grids_db19rollback_to_version0B5_
FNDA:0,_RNCNvNtCs6hgwym0NSuY_19inspection_officine8grids_db19rollback_to_versions0_0B5_
FNDA:0,_RNCNvNtCs6hgwym0NSuY_19inspection_officine8grids_db19rollback_to_versions1_0B5_
FNDA:0,_RNCNvNtCs6hgwym0NSuY_19inspection_officine8grids_db19rollback_to_versions2_0B5_
FNDA:0,_RNCNvNtCs6hgwym0NSuY_19inspection_officine8grids_db19rollback_to_versions3_0B5_
FNDA:0,_RNCNvNtCs6hgwym0NSuY_19inspection_officine8grids_db19rollback_to_versions4_0B5_
FNDA:0,_RNCNvNtCs6hgwym0NSuY_19inspection_officine8grids_db19rollback_to_versions5_0B5_
FNDA:0,_RNCNvNtCs6hgwym0NSuY_19inspection_officine8grids_db19rollback_to_versions6_0B5_
FNDA:0,_RNCNvNtCs6hgwym0NSuY_19inspection_officine8grids_db19rollback_to_versions7_0B5_
FNDA:0,_RNCNvNtCs6hgwym0NSuY_19inspection_officine8grids_db19rollback_to_versions_0B5_
FNDA:0,_RNCNvNtCs6hgwym0NSuY_19inspection_officine8grids_db20get_version_snapshot0B5_
FNDA:0,_RNCNvNtCs6hgwym0NSuY_19inspection_officine8grids_db20get_version_snapshots0_0B5_
FNDA:0,_RNCNvNtCs6hgwym0NSuY_19inspection_officine8grids_db20get_version_snapshots1_0B5_
FNDA:0,_RNCNvNtCs6hgwym0NSuY_19inspection_officine8grids_db20get_version_snapshots_0B5_
FNDA:0,_RNCNvNtCs6hgwym0NSuY_19inspection_officine8grids_db21import_grid_from_json0B5_
FNDA:0,_RNCNvNtCs6hgwym0NSuY_19inspection_officine8grids_db26load_grid_sections_from_db0B5_
FNDA:0,_RNCNvNtCs6hgwym0NSuY_19inspection_officine8grids_db26load_grid_sections_from_dbs0_0B5_
FNDA:0,_RNCNvNtCs6hgwym0NSuY_19inspection_officine8grids_db26load_grid_sections_from_dbs1_0B5_
FNDA:0,_RNCNvNtCs6hgwym0NSuY_19inspection_officine8grids_db26load_grid_sections_from_dbs_0B5_
FNDA:0,_RNCNvNtCs6hgwym0NSuY_19inspection_officine8grids_db29load_section_criteria_from_db0B5_
FNDA:0,_RNCNvNtCs6hgwym0NSuY_19inspection_officine8grids_db29load_section_criteria_from_dbs0_0B5_
FNDA:0,_RNCNvNtCs6hgwym0NSuY_19inspection_officine8grids_db29load_section_criteria_from_dbs1_0B5_
FNDA:0,_RNCNvNtCs6hgwym0NSuY_19inspection_officine8grids_db29load_section_criteria_from_dbs_0B5_
FNDA:0,_RNCNvNtCs6hgwym0NSuY_19inspection_officine8grids_db9save_grid0B5_
FNDA:0,_RNCNvNtCs6hgwym0NSuY_19inspection_officine8grids_db9save_grids0_0B5_
FNDA:0,_RNCNvNtCs6hgwym0NSuY_19inspection_officine8grids_db9save_grids1_0B5_
FNDA:0,_RNCNvNtCs6hgwym0NSuY_19inspection_officine8grids_db9save_grids2_0B5_
FNDA:0,_RNCNvNtCs6hgwym0NSuY_19inspection_officine8grids_db9save_grids3_0B5_
FNDA:0,_RNCNvNtCs6hgwym0NSuY_19inspection_officine8grids_db9save_grids_0B5_
FNDA:0,_RNvNtCs6hgwym0NSuY_19inspection_officine8grids_db12archive_grid
FNDA:0,_RNvNtCs6hgwym0NSuY_19inspection_officine8grids_db13list_versions
FNDA:0,_RNvNtCs6hgwym0NSuY_19inspection_officine8grids_db14create_version
FNDA:0,_RNvNtCs6hgwym0NSuY_19inspection_officine8grids_db15find_grid_by_id
FNDA:0,_RNvNtCs6hgwym0NSuY_19inspection_officine8grids_db16export_grid_json
FNDA:0,_RNvNtCs6hgwym0NSuY_19inspection_officine8grids_db16update_grid_meta
FNDA:0,_RNvNtCs6hgwym0NSuY_19inspection_officine8grids_db17get_grid_snapshot
FNDA:0,_RNvNtCs6hgwym0NSuY_19inspection_officine8grids_db18load_grids_from_db
FNDA:0,_RNvNtCs6hgwym0NSuY_19inspection_officine8grids_db19rollback_to_version
FNDA:0,_RNvNtCs6hgwym0NSuY_19inspection_officine8grids_db20get_version_snapshot
FNDA:0,_RNvNtCs6hgwym0NSuY_19inspection_officine8grids_db21import_grid_from_json
FNDA:0,_RNvNtCs6hgwym0NSuY_19inspection_officine8grids_db26load_grid_sections_from_db
FNDA:0,_RNvNtCs6hgwym0NSuY_19inspection_officine8grids_db29load_section_criteria_from_db
FNDA:0,_RNvNtCs6hgwym0NSuY_19inspection_officine8grids_db9save_grid
FNF:85
FNH:0
DA:9,0
DA:10,0
DA:11,0
DA:12,0
DA:15,0
DA:16,0
DA:17,0
DA:18,0
DA:19,0
DA:20,0
DA:21,0
DA:24,0
DA:25,0
DA:26,0
DA:27,0
DA:28,0
DA:29,0
DA:30,0
DA:31,0
DA:34,0
DA:35,0
DA:37,0
DA:38,0
DA:39,0
DA:40,0
DA:41,0
DA:42,0
DA:43,0
DA:44,0
DA:45,0
DA:46,0
DA:47,0
DA:49,0
DA:50,0
DA:51,0
DA:53,0
DA:56,0
DA:57,0
DA:58,0
DA:59,0
DA:60,0
DA:61,0
DA:62,0
DA:63,0
DA:64,0
DA:65,0
DA:67,0
DA:68,0
DA:69,0
DA:72,0
DA:73,0
DA:75,0
DA:76,0
DA:77,0
DA:78,0
DA:79,0
DA:80,0
DA:82,0
DA:83,0
DA:84,0
DA:87,0
DA:88,0
DA:89,0
DA:90,0
DA:91,0
DA:92,0
DA:93,0
DA:94,0
DA:95,0
DA:96,0
DA:97,0
DA:98,0
DA:100,0
DA:102,0
DA:103,0
DA:104,0
DA:105,0
DA:107,0
DA:109,0
DA:110,0
DA:111,0
DA:114,0
DA:115,0
DA:118,0
DA:119,0
DA:121,0
DA:124,0
DA:125,0
DA:127,0
DA:129,0
DA:130,0
DA:134,0
DA:135,0
DA:136,0
DA:137,0
DA:138,0
DA:139,0
DA:140,0
DA:141,0
DA:142,0
DA:143,0
DA:144,0
DA:145,0
DA:147,0
DA:148,0
DA:150,0
DA:151,0
DA:152,0
DA:153,0
DA:154,0
DA:155,0
DA:156,0
DA:157,0
DA:158,0
DA:159,0
DA:160,0
DA:161,0
DA:163,0
DA:164,0
DA:167,0
DA:168,0
DA:169,0
DA:170,0
DA:171,0
DA:172,0
DA:173,0
DA:176,0
DA:177,0
DA:178,0
DA:179,0
DA:180,0
DA:181,0
DA:182,0
DA:183,0
DA:184,0
DA:185,0
DA:186,0
DA:187,0
DA:188,0
DA:189,0
DA:192,0
DA:193,0
DA:194,0
DA:195,0
DA:196,0
DA:197,0
DA:199,0
DA:200,0
DA:201,0
DA:202,0
DA:203,0
DA:204,0
DA:211,0
DA:212,0
DA:214,0
DA:219,0
DA:220,0
DA:222,0
DA:223,0
DA:224,0
DA:225,0
DA:226,0
DA:229,0
DA:230,0
DA:231,0
DA:232,0
DA:233,0
DA:234,0
DA:235,0
DA:236,0
DA:239,0
DA:240,0
DA:243,0
DA:244,0
DA:245,0
DA:246,0
DA:247,0
DA:248,0
DA:249,0
DA:250,0
DA:251,0
DA:252,0
DA:253,0
DA:256,0
DA:259,0
DA:260,0
DA:262,0
DA:263,0
DA:264,0
DA:265,0
DA:266,0
DA:267,0
DA:268,0
DA:269,0
DA:270,0
DA:271,0
DA:272,0
DA:273,0
DA:274,0
DA:275,0
DA:276,0
DA:277,0
DA:279,0
DA:280,0
DA:281,0
DA:283,0
DA:285,0
DA:286,0
DA:287,0
DA:290,0
DA:291,0
DA:294,0
DA:296,0
DA:297,0
DA:298,0
DA:300,0
DA:301,0
DA:303,0
DA:306,0
DA:307,0
DA:308,0
DA:309,0
DA:310,0
DA:311,0
DA:312,0
DA:313,0
DA:316,0
DA:317,0
DA:320,0
DA:321,0
DA:322,0
DA:323,0
DA:324,0
DA:325,0
DA:326,0
DA:328,0
DA:330,0
DA:331,0
DA:332,0
DA:333,0
DA:334,0
DA:336,0
DA:337,0
DA:338,0
DA:339,0
DA:340,0
DA:341,0
DA:342,0
DA:343,0
DA:346,0
DA:347,0
DA:350,0
DA:351,0
DA:352,0
DA:353,0
DA:354,0
DA:355,0
DA:356,0
DA:358,0
DA:359,0
DA:362,0
DA:363,0
DA:364,0
DA:366,0
DA:367,0
DA:370,0
DA:371,0
DA:374,0
DA:375,0
DA:376,0
DA:377,0
DA:378,0
DA:379,0
DA:380,0
DA:381,0
DA:384,0
DA:385,0
DA:386,0
DA:387,0
DA:388,0
DA:391,0
DA:392,0
DA:393,0
DA:394,0
DA:399,0
DA:400,0
DA:401,0
DA:402,0
DA:405,0
DA:408,0
DA:409,0
DA:410,0
DA:411,0
DA:412,0
DA:415,0
DA:416,0
DA:417,0
DA:418,0
DA:419,0
DA:420,0
DA:423,0
DA:424,0
DA:425,0
DA:426,0
DA:427,0
DA:428,0
DA:431,0
DA:432,0
DA:433,0
DA:434,0
DA:435,0
DA:436,0
DA:438,0
DA:439,0
DA:440,0
DA:441,0
DA:442,0
DA:443,0
DA:444,0
DA:445,0
DA:448,0
DA:449,0
DA:452,0
DA:453,0
DA:454,0
DA:455,0
DA:456,0
DA:458,0
DA:459,0
DA:460,0
DA:461,0
DA:463,0
DA:464,0
DA:465,0
DA:467,0
DA:468,0
DA:469,0
DA:472,0
DA:473,0
DA:474,0
DA:475,0
DA:476,0
DA:477,0
DA:479,0
DA:480,0
DA:481,0
DA:482,0
DA:483,0
DA:485,0
DA:486,0
DA:487,0
DA:490,0
DA:491,0
DA:492,0
DA:493,0
DA:494,0
DA:495,0
DA:496,0
DA:497,0
DA:499,0
DA:502,0
DA:503,0
DA:504,0
DA:507,0
DA:508,0
DA:509,0
DA:510,0
DA:511,0
DA:513,0
DA:514,0
DA:515,0
DA:516,0
DA:521,0
DA:522,0
DA:523,0
DA:524,0
DA:527,0
DA:528,0
DA:529,0
DA:530,0
DA:531,0
DA:532,0
DA:533,0
DA:534,0
DA:535,0
DA:536,0
DA:537,0
DA:538,0
DA:539,0
DA:540,0
DA:543,0
DA:544,0
DA:545,0
DA:546,0
DA:547,0
DA:548,0
DA:551,0
DA:552,0
DA:553,0
DA:554,0
DA:555,0
DA:562,0
DA:563,0
DA:565,0
DA:570,0
DA:571,0
DA:572,0
DA:573,0
DA:574,0
DA:575,0
DA:576,0
DA:577,0
DA:578,0
DA:579,0
DA:580,0
DA:582,0
DA:583,0
DA:584,0
DA:585,0
DA:586,0
DA:587,0
DA:588,0
DA:589,0
DA:592,0
DA:593,0
DA:596,0
DA:597,0
DA:598,0
DA:599,0
DA:600,0
DA:601,0
DA:603,0
DA:604,0
DA:605,0
DA:608,0
DA:609,0
DA:610,0
DA:611,0
DA:612,0
DA:613,0
DA:614,0
DA:615,0
DA:618,0
DA:620,0
DA:621,0
DA:633,0
DA:634,0
DA:635,0
DA:636,0
DA:637,0
DA:638,0
DA:639,0
DA:640,0
DA:641,0
DA:642,0
DA:643,0
DA:644,0
DA:645,0
DA:646,0
DA:647,0
DA:648,0
DA:649,0
DA:650,0
DA:651,0
DA:652,0
DA:653,0
DA:654,0
DA:655,0
DA:656,0
DA:657,0
DA:658,0
DA:659,0
DA:660,0
DA:661,0
DA:662,0
DA:663,0
DA:664,0
DA:665,0
DA:666,0
DA:667,0
DA:668,0
DA:669,0
DA:670,0
DA:671,0
DA:672,0
DA:673,0
DA:674,0
DA:675,0
DA:676,0
DA:677,0
DA:678,0
DA:679,0
DA:680,0
DA:681,0
DA:682,0
DA:683,0
DA:684,0
DA:685,0
DA:686,0
DA:687,0
DA:688,0
DA:689,0
DA:690,0
DA:691,0
DA:692,0
DA:693,0
DA:694,0
DA:695,0
DA:696,0
DA:697,0
DA:698,0
DA:699,0
DA:700,0
DA:701,0
DA:702,0
DA:703,0
DA:704,0
DA:705,0
DA:706,0
DA:707,0
DA:708,0
DA:709,0
DA:710,0
DA:711,0
DA:712,0
DA:715,0
DA:716,0
DA:717,0
DA:718,0
DA:720,0
DA:723,0
DA:724,0
DA:725,0
DA:726,0
DA:727,0
DA:728,0
DA:729,0
DA:730,0
DA:731,0
DA:732,0
DA:733,0
DA:734,0
DA:735,0
DA:736,0
DA:737,0
DA:738,0
DA:739,0
DA:741,0
DA:742,0
DA:744,0
DA:745,0
DA:746,0
DA:747,0
DA:748,0
DA:749,0
DA:750,0
DA:751,0
DA:752,0
DA:753,0
DA:754,0
DA:755,0
DA:758,0
DA:759,0
DA:760,0
DA:762,0
DA:763,0
DA:764,0
DA:765,0
DA:766,0
DA:767,0
DA:768,0
DA:769,0
DA:770,0
DA:771,0
DA:772,0
DA:773,0
DA:774,0
DA:775,0
DA:776,0
DA:777,0
DA:778,0
DA:779,0
DA:780,0
DA:781,0
DA:782,0
DA:783,0
DA:784,0
DA:785,0
DA:786,0
DA:787,0
DA:788,0
DA:789,0
DA:790,0
DA:791,0
DA:792,0
DA:793,0
DA:794,0
DA:795,0
DA:796,0
DA:797,0
DA:798,0
DA:799,0
DA:800,0
DA:801,0
DA:802,0
DA:804,0
DA:805,0
DA:808,0
DA:809,0
DA:811,0
DA:812,0
DA:813,0
DA:814,0
DA:815,0
DA:816,0
DA:817,0
DA:818,0
DA:819,0
DA:822,0
DA:823,0
DA:824,0
DA:826,0
DA:827,0
DA:828,0
DA:831,0
DA:832,0
DA:833,0
DA:836,0
DA:837,0
DA:838,0
DA:839,0
DA:840,0
DA:841,0
DA:842,0
DA:843,0
DA:844,0
DA:845,0
DA:847,0
DA:848,0
DA:849,0
DA:850,0
DA:851,0
DA:852,0
DA:853,0
DA:854,0
DA:855,0
DA:856,0
DA:858,0
DA:859,0
DA:861,0
DA:862,0
DA:863,0
DA:866,0
DA:867,0
DA:868,0
DA:870,0
DA:871,0
DA:872,0
DA:873,0
DA:874,0
DA:875,0
DA:876,0
DA:877,0
DA:878,0
DA:879,0
DA:881,0
DA:884,0
DA:887,0
DA:888,0
DA:891,0
DA:892,0
DA:895,0
DA:896,0
DA:899,0
DA:900,0
DA:901,0
DA:903,0
DA:904,0
DA:905,0
DA:908,0
DA:909,0
DA:910,0
DA:913,0
DA:914,0
DA:915,0
DA:916,0
DA:917,0
DA:918,0
DA:919,0
DA:920,0
DA:921,0
DA:922,0
DA:923,0
DA:924,0
DA:925,0
DA:926,0
DA:927,0
DA:928,0
DA:929,0
DA:930,0
DA:931,0
DA:932,0
DA:933,0
DA:934,0
DA:935,0
DA:937,0
DA:940,0
DA:941,0
DA:942,0
DA:945,0
DA:946,0
DA:948,0
DA:949,0
DA:952,0
DA:953,0
DA:954,0
DA:955,0
DA:956,0
DA:957,0
DA:960,0
DA:961,0
DA:962,0
DA:965,0
DA:966,0
DA:967,0
DA:968,0
DA:969,0
DA:970,0
DA:971,0
DA:972,0
DA:973,0
DA:974,0
DA:975,0
DA:976,0
DA:977,0
DA:978,0
DA:979,0
DA:980,0
DA:982,0
DA:985,0
DA:986,0
DA:987,0
DA:990,0
DA:991,0
DA:992,0
DA:993,0
DA:994,0
DA:995,0
DA:998,0
DA:999,0
DA:1002,0
DA:1003,0
DA:1004,0
DA:1005,0
DA:1008,0
DA:1009,0
DA:1010,0
DA:1011,0
DA:1012,0
DA:1015,0
DA:1016,0
DA:1017,0
DA:1020,0
DA:1021,0
DA:1022,0
DA:1023,0
DA:1024,0
DA:1025,0
DA:1026,0
DA:1027,0
DA:1028,0
DA:1029,0
DA:1030,0
DA:1031,0
DA:1032,0
DA:1033,0
DA:1034,0
DA:1035,0
DA:1037,0
DA:1040,0
DA:1043,0
DA:1044,0
DA:1045,0
DA:1046,0
DA:1047,0
DA:1048,0
DA:1049,0
DA:1052,0
DA:1053,0
DA:1056,0
DA:1057,0
DA:1060,0
DA:1061,0
DA:1062,0
DA:1063,0
DA:1066,0
DA:1067,0
DA:1068,0
DA:1070,0
DA:1071,0
DA:1072,0
DA:1073,0
DA:1074,0
DA:1075,0
DA:1076,0
DA:1077,0
DA:1078,0
DA:1079,0
DA:1081,0
DA:1084,0
DA:1085,0
DA:1086,0
DA:1087,0
DA:1088,0
DA:1089,0
DA:1091,0
DA:1094,0
DA:1095,0
DA:1096,0
DA:1097,0
DA:1098,0
DA:1099,0
DA:1102,0
DA:1103,0
DA:1104,0
DA:1106,0
DA:1107,0
DA:1108,0
DA:1109,0
DA:1110,0
DA:1111,0
DA:1112,0
DA:1113,0
DA:1114,0
DA:1115,0
DA:1116,0
DA:1117,0
DA:1118,0
DA:1119,0
DA:1120,0
DA:1121,0
DA:1123,0
DA:1124,0
DA:1127,0
DA:1128,0
DA:1129,0
DA:1130,0
DA:1131,0
DA:1132,0
DA:1133,0
DA:1136,0
DA:1137,0
DA:1140,0
DA:1141,0
DA:1142,0
BRF:0
BRH:0
LF:913
LH:0
end_of_record
SF:/home/abdyhw/Documents/Grilles/inspection-multi-grilles-copy/inspection-officine/src-tauri/src/main.rs
FN:1136,_RNCINvNvCs6hgwym0NSuY_19inspection_officine4main5innerppE0B6_
FN:1066,_RNCNCNCNvCs6hgwym0NSuY_19inspection_officine4mains0_000B7_
FN:1070,_RNCNCNCNvCs6hgwym0NSuY_19inspection_officine4mains0_0s_00B7_
FN:882,_RNCNCNCNvCs6hgwym0NSuY_19inspection_officine4mains1_0sV_00B7_
FN:888,_RNCNCNCNvCs6hgwym0NSuY_19inspection_officine4mains1_0sW_00B7_
FN:47,_RNCNCNvCs6hgwym0NSuY_19inspection_officine10list_grids00B5_
FN:755,_RNCNCNvCs6hgwym0NSuY_19inspection_officine16cmd_list_backups00B5_
FN:759,_RNCNCNvCs6hgwym0NSuY_19inspection_officine16cmd_list_backups0s_0B5_
FN:715,_RNCNCNvCs6hgwym0NSuY_19inspection_officine19cleanup_old_backupss_00B5_
FN:317,_RNCNCNvCs6hgwym0NSuY_19inspection_officine20cmd_list_grids_admin00B5_
FN:1066,_RNCNCNvCs6hgwym0NSuY_19inspection_officine4mains0_00B5_
FN:1070,_RNCNCNvCs6hgwym0NSuY_19inspection_officine4mains0_0s_0B5_
FN:45,_RNCNvCs6hgwym0NSuY_19inspection_officine10list_grids0B3_
FN:735,_RNCNvCs6hgwym0NSuY_19inspection_officine13cmd_backup_db0B3_
FN:790,_RNCNvCs6hgwym0NSuY_19inspection_officine14cmd_restore_db0B3_
FN:804,_RNCNvCs6hgwym0NSuY_19inspection_officine14cmd_restore_dbs0_0B3_
FN:806,_RNCNvCs6hgwym0NSuY_19inspection_officine14cmd_restore_dbs1_0B3_
FN:809,_RNCNvCs6hgwym0NSuY_19inspection_officine14cmd_restore_dbs2_0B3_
FN:811,_RNCNvCs6hgwym0NSuY_19inspection_officine14cmd_restore_dbs3_0B3_
FN:817,_RNCNvCs6hgwym0NSuY_19inspection_officine14cmd_restore_dbs4_0B3_
FN:823,_RNCNvCs6hgwym0NSuY_19inspection_officine14cmd_restore_dbs5_0B3_
FN:825,_RNCNvCs6hgwym0NSuY_19inspection_officine14cmd_restore_dbs6_0B3_
FN:827,_RNCNvCs6hgwym0NSuY_19inspection_officine14cmd_restore_dbs7_0B3_
FN:829,_RNCNvCs6hgwym0NSuY_19inspection_officine14cmd_restore_dbs8_0B3_
FN:791,_RNCNvCs6hgwym0NSuY_19inspection_officine14cmd_restore_dbs_0B3_
FN:753,_RNCNvCs6hgwym0NSuY_19inspection_officine16cmd_list_backups0B3_
FN:778,_RNCNvCs6hgwym0NSuY_19inspection_officine16cmd_list_backupss_0B3_
FN:845,_RNCNvCs6hgwym0NSuY_19inspection_officine17cmd_delete_backup0B3_
FN:848,_RNCNvCs6hgwym0NSuY_19inspection_officine17cmd_delete_backups0_0B3_
FN:846,_RNCNvCs6hgwym0NSuY_19inspection_officine17cmd_delete_backups_0B3_
FN:216,_RNCNvCs6hgwym0NSuY_19inspection_officine17cmd_save_response0B3_
FN:889,_RNCNvCs6hgwym0NSuY_19inspection_officine17cmd_sync_to_cloud0B3_
FN:387,_RNCNvCs6hgwym0NSuY_19inspection_officine18cmd_create_section0B3_
FN:409,_RNCNvCs6hgwym0NSuY_19inspection_officine18cmd_create_sections0_0B3_
FN:393,_RNCNvCs6hgwym0NSuY_19inspection_officine18cmd_create_sections_0B3_
FN:444,_RNCNvCs6hgwym0NSuY_19inspection_officine18cmd_delete_section0B3_
FN:449,_RNCNvCs6hgwym0NSuY_19inspection_officine18cmd_delete_sections_0B3_
FN:361,_RNCNvCs6hgwym0NSuY_19inspection_officine18cmd_duplicate_grid0B3_
FN:424,_RNCNvCs6hgwym0NSuY_19inspection_officine18cmd_update_section0B3_
FN:429,_RNCNvCs6hgwym0NSuY_19inspection_officine18cmd_update_sections_0B3_
FN:714,_RNCNvCs6hgwym0NSuY_19inspection_officine19cleanup_old_backups0B3_
FN:716,_RNCNvCs6hgwym0NSuY_19inspection_officine19cleanup_old_backupss0_0B3_
FN:718,_RNCNvCs6hgwym0NSuY_19inspection_officine19cleanup_old_backupss1_0B3_
FN:715,_RNCNvCs6hgwym0NSuY_19inspection_officine19cleanup_old_backupss_0B3_
FN:469,_RNCNvCs6hgwym0NSuY_19inspection_officine20cmd_create_criterion0B3_
FN:488,_RNCNvCs6hgwym0NSuY_19inspection_officine20cmd_create_criterions0_0B3_
FN:475,_RNCNvCs6hgwym0NSuY_19inspection_officine20cmd_create_criterions_0B3_
FN:524,_RNCNvCs6hgwym0NSuY_19inspection_officine20cmd_delete_criterion0B3_
FN:529,_RNCNvCs6hgwym0NSuY_19inspection_officine20cmd_delete_criterions_0B3_
FN:315,_RNCNvCs6hgwym0NSuY_19inspection_officine20cmd_list_grids_admin0B3_
FN:503,_RNCNvCs6hgwym0NSuY_19inspection_officine20cmd_update_criterion0B3_
FN:509,_RNCNvCs6hgwym0NSuY_19inspection_officine20cmd_update_criterions_0B3_
FN:883,_RNCNvCs6hgwym0NSuY_19inspection_officine22cmd_check_connectivity0B3_
FN:925,_RNCNvCs6hgwym0NSuY_19inspection_officine23cmd_generate_pdf_report0B3_
FN:932,_RNCNvCs6hgwym0NSuY_19inspection_officine23cmd_generate_pdf_reports0_0B3_
FN:933,_RNCNvCs6hgwym0NSuY_19inspection_officine23cmd_generate_pdf_reports1_0B3_
FN:939,_RNCNvCs6hgwym0NSuY_19inspection_officine23cmd_generate_pdf_reports2_0B3_
FN:940,_RNCNvCs6hgwym0NSuY_19inspection_officine23cmd_generate_pdf_reports3_0B3_
FN:952,_RNCNvCs6hgwym0NSuY_19inspection_officine23cmd_generate_pdf_reports4_0B3_
FN:953,_RNCNvCs6hgwym0NSuY_19inspection_officine23cmd_generate_pdf_reports5_0B3_
FN:954,_RNCNvCs6hgwym0NSuY_19inspection_officine23cmd_generate_pdf_reports6_0B3_
FN:959,_RNCNvCs6hgwym0NSuY_19inspection_officine23cmd_generate_pdf_reports7_0B3_
FN:960,_RNCNvCs6hgwym0NSuY_19inspection_officine23cmd_generate_pdf_reports8_0B3_
FN:929,_RNCNvCs6hgwym0NSuY_19inspection_officine23cmd_generate_pdf_reports_0B3_
FN:966,_RNCNvCs6hgwym0NSuY_19inspection_officine25calculate_conformity_rate0B3_
FN:967,_RNCNvCs6hgwym0NSuY_19inspection_officine25calculate_conformity_rates_0B3_
FN:240,_RNCNvCs6hgwym0NSuY_19inspection_officine25cmd_set_inspection_status0B3_
FN:993,_RNCNvCs6hgwym0NSuY_19inspection_officine4main0B3_
FN:1061,_RNCNvCs6hgwym0NSuY_19inspection_officine4mains0_0B3_
FN:996,_RNCNvCs6hgwym0NSuY_19inspection_officine4mains_0B3_
FN:76,_RNvCs6hgwym0NSuY_19inspection_officine10cmd_logout
FN:42,_RNvCs6hgwym0NSuY_19inspection_officine10list_grids
FN:59,_RNvCs6hgwym0NSuY_19inspection_officine12get_sections
FN:93,_RNvCs6hgwym0NSuY_19inspection_officine12require_role
FN:732,_RNvCs6hgwym0NSuY_19inspection_officine13cmd_backup_db
FN:107,_RNvCs6hgwym0NSuY_19inspection_officine14cmd_list_users
FN:783,_RNvCs6hgwym0NSuY_19inspection_officine14cmd_restore_db
FN:278,_RNvCs6hgwym0NSuY_19inspection_officine15cmd_count_audit
FN:324,_RNvCs6hgwym0NSuY_19inspection_officine15cmd_create_grid
FN:113,_RNvCs6hgwym0NSuY_19inspection_officine15cmd_create_user
FN:166,_RNvCs6hgwym0NSuY_19inspection_officine15cmd_delete_user
FN:272,_RNvCs6hgwym0NSuY_19inspection_officine15cmd_query_audit
FN:128,_RNvCs6hgwym0NSuY_19inspection_officine15cmd_update_user
FN:351,_RNvCs6hgwym0NSuY_19inspection_officine16cmd_archive_grid
FN:689,_RNvCs6hgwym0NSuY_19inspection_officine16cmd_get_settings
FN:747,_RNvCs6hgwym0NSuY_19inspection_officine16cmd_list_backups
FN:839,_RNvCs6hgwym0NSuY_19inspection_officine17cmd_delete_backup
FN:200,_RNvCs6hgwym0NSuY_19inspection_officine17cmd_get_responses
FN:634,_RNvCs6hgwym0NSuY_19inspection_officine17cmd_list_planning
FN:206,_RNvCs6hgwym0NSuY_19inspection_officine17cmd_save_response
FN:695,_RNvCs6hgwym0NSuY_19inspection_officine17cmd_save_settings
FN:889,_RNvCs6hgwym0NSuY_19inspection_officine17cmd_sync_to_cloud
FN:384,_RNvCs6hgwym0NSuY_19inspection_officine18cmd_create_section
FN:441,_RNvCs6hgwym0NSuY_19inspection_officine18cmd_delete_section
FN:358,_RNvCs6hgwym0NSuY_19inspection_officine18cmd_duplicate_grid
FN:194,_RNvCs6hgwym0NSuY_19inspection_officine18cmd_get_inspection
FN:421,_RNvCs6hgwym0NSuY_19inspection_officine18cmd_update_section
FN:711,_RNvCs6hgwym0NSuY_19inspection_officine19cleanup_old_backups
FN:142,_RNvCs6hgwym0NSuY_19inspection_officine19cmd_change_password
FN:640,_RNvCs6hgwym0NSuY_19inspection_officine19cmd_create_planning
FN:658,_RNvCs6hgwym0NSuY_19inspection_officine19cmd_delete_planning
FN:895,_RNvCs6hgwym0NSuY_19inspection_officine19cmd_get_sync_status
FN:649,_RNvCs6hgwym0NSuY_19inspection_officine19cmd_update_planning
FN:860,_RNvCs6hgwym0NSuY_19inspection_officine20cmd_configure_backup
FN:466,_RNvCs6hgwym0NSuY_19inspection_officine20cmd_create_criterion
FN:521,_RNvCs6hgwym0NSuY_19inspection_officine20cmd_delete_criterion
FN:594,_RNvCs6hgwym0NSuY_19inspection_officine20cmd_export_audit_csv
FN:580,_RNvCs6hgwym0NSuY_19inspection_officine20cmd_export_grid_json
FN:555,_RNvCs6hgwym0NSuY_19inspection_officine20cmd_get_grid_version
FN:587,_RNvCs6hgwym0NSuY_19inspection_officine20cmd_import_grid_json
FN:312,_RNvCs6hgwym0NSuY_19inspection_officine20cmd_list_grids_admin
FN:187,_RNvCs6hgwym0NSuY_19inspection_officine20cmd_list_inspections
FN:500,_RNvCs6hgwym0NSuY_19inspection_officine20cmd_update_criterion
FN:344,_RNvCs6hgwym0NSuY_19inspection_officine20cmd_update_grid_meta
FN:86,_RNvCs6hgwym0NSuY_19inspection_officine20cmd_validate_session
FN:177,_RNvCs6hgwym0NSuY_19inspection_officine21cmd_create_inspection
FN:261,_RNvCs6hgwym0NSuY_19inspection_officine21cmd_delete_inspection
FN:601,_RNvCs6hgwym0NSuY_19inspection_officine21cmd_export_audit_json
FN:903,_RNvCs6hgwym0NSuY_19inspection_officine21cmd_get_offline_state
FN:883,_RNvCs6hgwym0NSuY_19inspection_officine22cmd_check_connectivity
FN:541,_RNvCs6hgwym0NSuY_19inspection_officine22cmd_list_grid_versions
FN:152,_RNvCs6hgwym0NSuY_19inspection_officine23cmd_change_own_password
FN:548,_RNvCs6hgwym0NSuY_19inspection_officine23cmd_create_grid_version
FN:917,_RNvCs6hgwym0NSuY_19inspection_officine23cmd_generate_pdf_report
FN:615,_RNvCs6hgwym0NSuY_19inspection_officine23cmd_get_report_snapshot
FN:981,_RNvCs6hgwym0NSuY_19inspection_officine24cmd_export_analytics_csv
FN:974,_RNvCs6hgwym0NSuY_19inspection_officine24cmd_get_analytics_report
FN:964,_RNvCs6hgwym0NSuY_19inspection_officine25calculate_conformity_rate
FN:569,_RNvCs6hgwym0NSuY_19inspection_officine25cmd_compare_grid_versions
FN:669,_RNvCs6hgwym0NSuY_19inspection_officine25cmd_list_indisponibilites
FN:609,_RNvCs6hgwym0NSuY_19inspection_officine25cmd_list_report_snapshots
FN:562,_RNvCs6hgwym0NSuY_19inspection_officine25cmd_rollback_grid_version
FN:230,_RNvCs6hgwym0NSuY_19inspection_officine25cmd_set_inspection_status
FN:675,_RNvCs6hgwym0NSuY_19inspection_officine26cmd_create_indisponibilite
FN:621,_RNvCs6hgwym0NSuY_19inspection_officine26cmd_create_manual_snapshot
FN:681,_RNvCs6hgwym0NSuY_19inspection_officine26cmd_delete_indisponibilite
FN:221,_RNvCs6hgwym0NSuY_19inspection_officine26cmd_update_inspection_meta
FN:909,_RNvCs6hgwym0NSuY_19inspection_officine29cmd_check_connectivity_status
FN:990,_RNvCs6hgwym0NSuY_19inspection_officine4main
FN:53,_RNvCs6hgwym0NSuY_19inspection_officine8get_grid
FN:68,_RNvCs6hgwym0NSuY_19inspection_officine9cmd_login
FN:99,_RNvCs6hgwym0NSuY_19inspection_officine9sign_data
FNDA:0,_RNCINvNvCs6hgwym0NSuY_19inspection_officine4main5innerppE0B6_
FNDA:0,_RNCNCNCNvCs6hgwym0NSuY_19inspection_officine4mains0_000B7_
FNDA:0,_RNCNCNCNvCs6hgwym0NSuY_19inspection_officine4mains0_0s_00B7_
FNDA:0,_RNCNCNCNvCs6hgwym0NSuY_19inspection_officine4mains1_0sV_00B7_
FNDA:0,_RNCNCNCNvCs6hgwym0NSuY_19inspection_officine4mains1_0sW_00B7_
FNDA:0,_RNCNCNvCs6hgwym0NSuY_19inspection_officine10list_grids00B5_
FNDA:0,_RNCNCNvCs6hgwym0NSuY_19inspection_officine16cmd_list_backups00B5_
FNDA:0,_RNCNCNvCs6hgwym0NSuY_19inspection_officine16cmd_list_backups0s_0B5_
FNDA:0,_RNCNCNvCs6hgwym0NSuY_19inspection_officine19cleanup_old_backupss_00B5_
FNDA:0,_RNCNCNvCs6hgwym0NSuY_19inspection_officine20cmd_list_grids_admin00B5_
FNDA:0,_RNCNCNvCs6hgwym0NSuY_19inspection_officine4mains0_00B5_
FNDA:0,_RNCNCNvCs6hgwym0NSuY_19inspection_officine4mains0_0s_0B5_
FNDA:0,_RNCNvCs6hgwym0NSuY_19inspection_officine10list_grids0B3_
FNDA:0,_RNCNvCs6hgwym0NSuY_19inspection_officine13cmd_backup_db0B3_
FNDA:0,_RNCNvCs6hgwym0NSuY_19inspection_officine14cmd_restore_db0B3_
FNDA:0,_RNCNvCs6hgwym0NSuY_19inspection_officine14cmd_restore_dbs0_0B3_
FNDA:0,_RNCNvCs6hgwym0NSuY_19inspection_officine14cmd_restore_dbs1_0B3_
FNDA:0,_RNCNvCs6hgwym0NSuY_19inspection_officine14cmd_restore_dbs2_0B3_
FNDA:0,_RNCNvCs6hgwym0NSuY_19inspection_officine14cmd_restore_dbs3_0B3_
FNDA:0,_RNCNvCs6hgwym0NSuY_19inspection_officine14cmd_restore_dbs4_0B3_
FNDA:0,_RNCNvCs6hgwym0NSuY_19inspection_officine14cmd_restore_dbs5_0B3_
FNDA:0,_RNCNvCs6hgwym0NSuY_19inspection_officine14cmd_restore_dbs6_0B3_
FNDA:0,_RNCNvCs6hgwym0NSuY_19inspection_officine14cmd_restore_dbs7_0B3_
FNDA:0,_RNCNvCs6hgwym0NSuY_19inspection_officine14cmd_restore_dbs8_0B3_
FNDA:0,_RNCNvCs6hgwym0NSuY_19inspection_officine14cmd_restore_dbs_0B3_
FNDA:0,_RNCNvCs6hgwym0NSuY_19inspection_officine16cmd_list_backups0B3_
FNDA:0,_RNCNvCs6hgwym0NSuY_19inspection_officine16cmd_list_backupss_0B3_
FNDA:0,_RNCNvCs6hgwym0NSuY_19inspection_officine17cmd_delete_backup0B3_
FNDA:0,_RNCNvCs6hgwym0NSuY_19inspection_officine17cmd_delete_backups0_0B3_
FNDA:0,_RNCNvCs6hgwym0NSuY_19inspection_officine17cmd_delete_backups_0B3_
FNDA:0,_RNCNvCs6hgwym0NSuY_19inspection_officine17cmd_save_response0B3_
FNDA:0,_RNCNvCs6hgwym0NSuY_19inspection_officine17cmd_sync_to_cloud0B3_
FNDA:0,_RNCNvCs6hgwym0NSuY_19inspection_officine18cmd_create_section0B3_
FNDA:0,_RNCNvCs6hgwym0NSuY_19inspection_officine18cmd_create_sections0_0B3_
FNDA:0,_RNCNvCs6hgwym0NSuY_19inspection_officine18cmd_create_sections_0B3_
FNDA:0,_RNCNvCs6hgwym0NSuY_19inspection_officine18cmd_delete_section0B3_
FNDA:0,_RNCNvCs6hgwym0NSuY_19inspection_officine18cmd_delete_sections_0B3_
FNDA:0,_RNCNvCs6hgwym0NSuY_19inspection_officine18cmd_duplicate_grid0B3_
FNDA:0,_RNCNvCs6hgwym0NSuY_19inspection_officine18cmd_update_section0B3_
FNDA:0,_RNCNvCs6hgwym0NSuY_19inspection_officine18cmd_update_sections_0B3_
FNDA:0,_RNCNvCs6hgwym0NSuY_19inspection_officine19cleanup_old_backups0B3_
FNDA:0,_RNCNvCs6hgwym0NSuY_19inspection_officine19cleanup_old_backupss0_0B3_
FNDA:0,_RNCNvCs6hgwym0NSuY_19inspection_officine19cleanup_old_backupss1_0B3_
FNDA:0,_RNCNvCs6hgwym0NSuY_19inspection_officine19cleanup_old_backupss_0B3_
FNDA:0,_RNCNvCs6hgwym0NSuY_19inspection_officine20cmd_create_criterion0B3_
FNDA:0,_RNCNvCs6hgwym0NSuY_19inspection_officine20cmd_create_criterions0_0B3_
FNDA:0,_RNCNvCs6hgwym0NSuY_19inspection_officine20cmd_create_criterions_0B3_
FNDA:0,_RNCNvCs6hgwym0NSuY_19inspection_officine20cmd_delete_criterion0B3_
FNDA:0,_RNCNvCs6hgwym0NSuY_19inspection_officine20cmd_delete_criterions_0B3_
FNDA:0,_RNCNvCs6hgwym0NSuY_19inspection_officine20cmd_list_grids_admin0B3_
FNDA:0,_RNCNvCs6hgwym0NSuY_19inspection_officine20cmd_update_criterion0B3_
FNDA:0,_RNCNvCs6hgwym0NSuY_19inspection_officine20cmd_update_criterions_0B3_
FNDA:0,_RNCNvCs6hgwym0NSuY_19inspection_officine22cmd_check_connectivity0B3_
FNDA:0,_RNCNvCs6hgwym0NSuY_19inspection_officine23cmd_generate_pdf_report0B3_
FNDA:0,_RNCNvCs6hgwym0NSuY_19inspection_officine23cmd_generate_pdf_reports0_0B3_
FNDA:0,_RNCNvCs6hgwym0NSuY_19inspection_officine23cmd_generate_pdf_reports1_0B3_
FNDA:0,_RNCNvCs6hgwym0NSuY_19inspection_officine23cmd_generate_pdf_reports2_0B3_
FNDA:0,_RNCNvCs6hgwym0NSuY_19inspection_officine23cmd_generate_pdf_reports3_0B3_
FNDA:0,_RNCNvCs6hgwym0NSuY_19inspection_officine23cmd_generate_pdf_reports4_0B3_
FNDA:0,_RNCNvCs6hgwym0NSuY_19inspection_officine23cmd_generate_pdf_reports5_0B3_
FNDA:0,_RNCNvCs6hgwym0NSuY_19inspection_officine23cmd_generate_pdf_reports6_0B3_
FNDA:0,_RNCNvCs6hgwym0NSuY_19inspection_officine23cmd_generate_pdf_reports7_0B3_
FNDA:0,_RNCNvCs6hgwym0NSuY_19inspection_officine23cmd_generate_pdf_reports8_0B3_
FNDA:0,_RNCNvCs6hgwym0NSuY_19inspection_officine23cmd_generate_pdf_reports_0B3_
FNDA:0,_RNCNvCs6hgwym0NSuY_19inspection_officine25calculate_conformity_rate0B3_
FNDA:0,_RNCNvCs6hgwym0NSuY_19inspection_officine25calculate_conformity_rates_0B3_
FNDA:0,_RNCNvCs6hgwym0NSuY_19inspection_officine25cmd_set_inspection_status0B3_
FNDA:0,_RNCNvCs6hgwym0NSuY_19inspection_officine4main0B3_
FNDA:0,_RNCNvCs6hgwym0NSuY_19inspection_officine4mains0_0B3_
FNDA:0,_RNCNvCs6hgwym0NSuY_19inspection_officine4mains_0B3_
FNDA:0,_RNvCs6hgwym0NSuY_19inspection_officine10cmd_logout
FNDA:0,_RNvCs6hgwym0NSuY_19inspection_officine10list_grids
FNDA:0,_RNvCs6hgwym0NSuY_19inspection_officine12get_sections
FNDA:0,_RNvCs6hgwym0NSuY_19inspection_officine12require_role
FNDA:0,_RNvCs6hgwym0NSuY_19inspection_officine13cmd_backup_db
FNDA:0,_RNvCs6hgwym0NSuY_19inspection_officine14cmd_list_users
FNDA:0,_RNvCs6hgwym0NSuY_19inspection_officine14cmd_restore_db
FNDA:0,_RNvCs6hgwym0NSuY_19inspection_officine15cmd_count_audit
FNDA:0,_RNvCs6hgwym0NSuY_19inspection_officine15cmd_create_grid
FNDA:0,_RNvCs6hgwym0NSuY_19inspection_officine15cmd_create_user
FNDA:0,_RNvCs6hgwym0NSuY_19inspection_officine15cmd_delete_user
FNDA:0,_RNvCs6hgwym0NSuY_19inspection_officine15cmd_query_audit
FNDA:0,_RNvCs6hgwym0NSuY_19inspection_officine15cmd_update_user
FNDA:0,_RNvCs6hgwym0NSuY_19inspection_officine16cmd_archive_grid
FNDA:0,_RNvCs6hgwym0NSuY_19inspection_officine16cmd_get_settings
FNDA:0,_RNvCs6hgwym0NSuY_19inspection_officine16cmd_list_backups
FNDA:0,_RNvCs6hgwym0NSuY_19inspection_officine17cmd_delete_backup
FNDA:0,_RNvCs6hgwym0NSuY_19inspection_officine17cmd_get_responses
FNDA:0,_RNvCs6hgwym0NSuY_19inspection_officine17cmd_list_planning
FNDA:0,_RNvCs6hgwym0NSuY_19inspection_officine17cmd_save_response
FNDA:0,_RNvCs6hgwym0NSuY_19inspection_officine17cmd_save_settings
FNDA:0,_RNvCs6hgwym0NSuY_19inspection_officine17cmd_sync_to_cloud
FNDA:0,_RNvCs6hgwym0NSuY_19inspection_officine18cmd_create_section
FNDA:0,_RNvCs6hgwym0NSuY_19inspection_officine18cmd_delete_section
FNDA:0,_RNvCs6hgwym0NSuY_19inspection_officine18cmd_duplicate_grid
FNDA:0,_RNvCs6hgwym0NSuY_19inspection_officine18cmd_get_inspection
FNDA:0,_RNvCs6hgwym0NSuY_19inspection_officine18cmd_update_section
FNDA:0,_RNvCs6hgwym0NSuY_19inspection_officine19cleanup_old_backups
FNDA:0,_RNvCs6hgwym0NSuY_19inspection_officine19cmd_change_password
FNDA:0,_RNvCs6hgwym0NSuY_19inspection_officine19cmd_create_planning
FNDA:0,_RNvCs6hgwym0NSuY_19inspection_officine19cmd_delete_planning
FNDA:0,_RNvCs6hgwym0NSuY_19inspection_officine19cmd_get_sync_status
FNDA:0,_RNvCs6hgwym0NSuY_19inspection_officine19cmd_update_planning
FNDA:0,_RNvCs6hgwym0NSuY_19inspection_officine20cmd_configure_backup
FNDA:0,_RNvCs6hgwym0NSuY_19inspection_officine20cmd_create_criterion
FNDA:0,_RNvCs6hgwym0NSuY_19inspection_officine20cmd_delete_criterion
FNDA:0,_RNvCs6hgwym0NSuY_19inspection_officine20cmd_export_audit_csv
FNDA:0,_RNvCs6hgwym0NSuY_19inspection_officine20cmd_export_grid_json
FNDA:0,_RNvCs6hgwym0NSuY_19inspection_officine20cmd_get_grid_version
FNDA:0,_RNvCs6hgwym0NSuY_19inspection_officine20cmd_import_grid_json
FNDA:0,_RNvCs6hgwym0NSuY_19inspection_officine20cmd_list_grids_admin
FNDA:0,_RNvCs6hgwym0NSuY_19inspection_officine20cmd_list_inspections
FNDA:0,_RNvCs6hgwym0NSuY_19inspection_officine20cmd_update_criterion
FNDA:0,_RNvCs6hgwym0NSuY_19inspection_officine20cmd_update_grid_meta
FNDA:0,_RNvCs6hgwym0NSuY_19inspection_officine20cmd_validate_session
FNDA:0,_RNvCs6hgwym0NSuY_19inspection_officine21cmd_create_inspection
FNDA:0,_RNvCs6hgwym0NSuY_19inspection_officine21cmd_delete_inspection
FNDA:0,_RNvCs6hgwym0NSuY_19inspection_officine21cmd_export_audit_json
FNDA:0,_RNvCs6hgwym0NSuY_19inspection_officine21cmd_get_offline_state
FNDA:0,_RNvCs6hgwym0NSuY_19inspection_officine22cmd_check_connectivity
FNDA:0,_RNvCs6hgwym0NSuY_19inspection_officine22cmd_list_grid_versions
FNDA:0,_RNvCs6hgwym0NSuY_19inspection_officine23cmd_change_own_password
FNDA:0,_RNvCs6hgwym0NSuY_19inspection_officine23cmd_create_grid_version
FNDA:0,_RNvCs6hgwym0NSuY_19inspection_officine23cmd_generate_pdf_report
FNDA:0,_RNvCs6hgwym0NSuY_19inspection_officine23cmd_get_report_snapshot
FNDA:0,_RNvCs6hgwym0NSuY_19inspection_officine24cmd_export_analytics_csv
FNDA:0,_RNvCs6hgwym0NSuY_19inspection_officine24cmd_get_analytics_report
FNDA:0,_RNvCs6hgwym0NSuY_19inspection_officine25calculate_conformity_rate
FNDA:0,_RNvCs6hgwym0NSuY_19inspection_officine25cmd_compare_grid_versions
FNDA:0,_RNvCs6hgwym0NSuY_19inspection_officine25cmd_list_indisponibilites
FNDA:0,_RNvCs6hgwym0NSuY_19inspection_officine25cmd_list_report_snapshots
FNDA:0,_RNvCs6hgwym0NSuY_19inspection_officine25cmd_rollback_grid_version
FNDA:0,_RNvCs6hgwym0NSuY_19inspection_officine25cmd_set_inspection_status
FNDA:0,_RNvCs6hgwym0NSuY_19inspection_officine26cmd_create_indisponibilite
FNDA:0,_RNvCs6hgwym0NSuY_19inspection_officine26cmd_create_manual_snapshot
FNDA:0,_RNvCs6hgwym0NSuY_19inspection_officine26cmd_delete_indisponibilite
FNDA:0,_RNvCs6hgwym0NSuY_19inspection_officine26cmd_update_inspection_meta
FNDA:0,_RNvCs6hgwym0NSuY_19inspection_officine29cmd_check_connectivity_status
FNDA:0,_RNvCs6hgwym0NSuY_19inspection_officine4main
FNDA:0,_RNvCs6hgwym0NSuY_19inspection_officine8get_grid
FNDA:0,_RNvCs6hgwym0NSuY_19inspection_officine9cmd_login
FNDA:0,_RNvCs6hgwym0NSuY_19inspection_officine9sign_data
FNF:142
FNH:0
DA:42,0
DA:43,0
DA:44,0
DA:45,0
DA:46,0
DA:47,0
DA:48,0
DA:49,0
DA:50,0
DA:53,0
DA:54,0
DA:55,0
DA:56,0
DA:59,0
DA:60,0
DA:61,0
DA:62,0
DA:63,0
DA:68,0
DA:69,0
DA:70,0
DA:71,0
DA:72,0
DA:73,0
DA:76,0
DA:78,0
DA:79,0
DA:80,0
DA:81,0
DA:82,0
DA:83,0
DA:86,0
DA:88,0
DA:89,0
DA:93,0
DA:94,0
DA:95,0
DA:96,0
DA:97,0
DA:99,0
DA:100,0
DA:101,0
DA:102,0
DA:103,0
DA:104,0
DA:107,0
DA:108,0
DA:109,0
DA:110,0
DA:113,0
DA:114,0
DA:115,0
DA:116,0
DA:117,0
DA:119,0
DA:120,0
DA:121,0
DA:122,0
DA:123,0
DA:124,0
DA:125,0
DA:128,0
DA:129,0
DA:131,0
DA:132,0
DA:133,0
DA:134,0
DA:135,0
DA:136,0
DA:137,0
DA:138,0
DA:139,0
DA:142,0
DA:143,0
DA:144,0
DA:145,0
DA:146,0
DA:147,0
DA:148,0
DA:149,0
DA:152,0
DA:154,0
DA:155,0
DA:157,0
DA:158,0
DA:159,0
DA:160,0
DA:161,0
DA:162,0
DA:163,0
DA:166,0
DA:167,0
DA:168,0
DA:169,0
DA:170,0
DA:171,0
DA:172,0
DA:177,0
DA:178,0
DA:179,0
DA:180,0
DA:181,0
DA:182,0
DA:183,0
DA:184,0
DA:187,0
DA:188,0
DA:189,0
DA:190,0
DA:191,0
DA:194,0
DA:195,0
DA:196,0
DA:197,0
DA:200,0
DA:201,0
DA:202,0
DA:203,0
DA:206,0
DA:207,0
DA:208,0
DA:209,0
DA:210,0
DA:211,0
DA:212,0
DA:213,0
DA:214,0
DA:215,0
DA:216,0
DA:217,0
DA:218,0
DA:221,0
DA:222,0
DA:223,0
DA:224,0
DA:225,0
DA:226,0
DA:227,0
DA:230,0
DA:231,0
DA:232,0
DA:234,0
DA:238,0
DA:239,0
DA:240,0
DA:241,0
DA:242,0
DA:243,0
DA:244,0
DA:245,0
DA:246,0
DA:247,0
DA:248,0
DA:249,0
DA:250,0
DA:251,0
DA:252,0
DA:254,0
DA:255,0
DA:256,0
DA:257,0
DA:258,0
DA:261,0
DA:262,0
DA:263,0
DA:264,0
DA:265,0
DA:266,0
DA:267,0
DA:272,0
DA:273,0
DA:274,0
DA:275,0
DA:278,0
DA:279,0
DA:280,0
DA:281,0
DA:312,0
DA:313,0
DA:314,0
DA:315,0
DA:316,0
DA:317,0
DA:318,0
DA:319,0
DA:320,0
DA:324,0
DA:325,0
DA:327,0
DA:328,0
DA:329,0
DA:330,0
DA:331,0
DA:332,0
DA:333,0
DA:334,0
DA:335,0
DA:336,0
DA:338,0
DA:339,0
DA:340,0
DA:344,0
DA:345,0
DA:346,0
DA:347,0
DA:351,0
DA:352,0
DA:353,0
DA:354,0
DA:358,0
DA:359,0
DA:360,0
DA:361,0
DA:363,0
DA:364,0
DA:365,0
DA:366,0
DA:367,0
DA:368,0
DA:369,0
DA:370,0
DA:371,0
DA:372,0
DA:374,0
DA:375,0
DA:376,0
DA:377,0
DA:378,0
DA:379,0
DA:380,0
DA:384,0
DA:385,0
DA:387,0
DA:390,0
DA:391,0
DA:392,0
DA:393,0
DA:394,0
DA:396,0
DA:398,0
DA:399,0
DA:400,0
DA:401,0
DA:402,0
DA:404,0
DA:405,0
DA:406,0
DA:407,0
DA:408,0
DA:409,0
DA:411,0
DA:412,0
DA:413,0
DA:414,0
DA:416,0
DA:417,0
DA:421,0
DA:422,0
DA:424,0
DA:426,0
DA:427,0
DA:428,0
DA:429,0
DA:431,0
DA:432,0
DA:433,0
DA:434,0
DA:436,0
DA:437,0
DA:441,0
DA:442,0
DA:444,0
DA:446,0
DA:447,0
DA:448,0
DA:449,0
DA:451,0
DA:452,0
DA:453,0
DA:454,0
DA:456,0
DA:457,0
DA:458,0
DA:459,0
DA:461,0
DA:462,0
DA:466,0
DA:467,0
DA:469,0
DA:472,0
DA:473,0
DA:474,0
DA:475,0
DA:476,0
DA:478,0
DA:480,0
DA:481,0
DA:482,0
DA:483,0
DA:484,0
DA:486,0
DA:488,0
DA:490,0
DA:491,0
DA:492,0
DA:493,0
DA:495,0
DA:496,0
DA:500,0
DA:501,0
DA:503,0
DA:505,0
DA:506,0
DA:507,0
DA:508,0
DA:509,0
DA:511,0
DA:512,0
DA:513,0
DA:514,0
DA:516,0
DA:517,0
DA:521,0
DA:522,0
DA:524,0
DA:526,0
DA:527,0
DA:528,0
DA:529,0
DA:531,0
DA:532,0
DA:533,0
DA:534,0
DA:536,0
DA:537,0
DA:541,0
DA:542,0
DA:543,0
DA:544,0
DA:548,0
DA:549,0
DA:550,0
DA:551,0
DA:555,0
DA:556,0
DA:557,0
DA:558,0
DA:562,0
DA:563,0
DA:564,0
DA:565,0
DA:569,0
DA:570,0
DA:572,0
DA:573,0
DA:575,0
DA:576,0
DA:580,0
DA:581,0
DA:582,0
DA:583,0
DA:587,0
DA:588,0
DA:589,0
DA:590,0
DA:594,0
DA:595,0
DA:596,0
DA:597,0
DA:601,0
DA:602,0
DA:603,0
DA:604,0
DA:609,0
DA:610,0
DA:611,0
DA:612,0
DA:615,0
DA:616,0
DA:617,0
DA:618,0
DA:621,0
DA:622,0
DA:623,0
DA:624,0
DA:625,0
DA:626,0
DA:627,0
DA:628,0
DA:629,0
DA:634,0
DA:635,0
DA:636,0
DA:637,0
DA:640,0
DA:641,0
DA:642,0
DA:643,0
DA:644,0
DA:645,0
DA:646,0
DA:649,0
DA:650,0
DA:651,0
DA:652,0
DA:653,0
DA:654,0
DA:655,0
DA:658,0
DA:659,0
DA:660,0
DA:661,0
DA:662,0
DA:663,0
DA:664,0
DA:669,0
DA:670,0
DA:671,0
DA:672,0
DA:675,0
DA:676,0
DA:677,0
DA:678,0
DA:681,0
DA:682,0
DA:683,0
DA:684,0
DA:689,0
DA:690,0
DA:691,0
DA:692,0
DA:695,0
DA:696,0
DA:697,0
DA:698,0
DA:711,0
DA:712,0
DA:713,0
DA:714,0
DA:715,0
DA:716,0
DA:717,0
DA:718,0
DA:719,0
DA:720,0
DA:721,0
DA:722,0
DA:723,0
DA:724,0
DA:725,0
DA:726,0
DA:727,0
DA:728,0
DA:729,0
DA:732,0
DA:733,0
DA:734,0
DA:735,0
DA:736,0
DA:737,0
DA:738,0
DA:739,0
DA:740,0
DA:741,0
DA:742,0
DA:743,0
DA:744,0
DA:747,0
DA:748,0
DA:749,0
DA:750,0
DA:751,0
DA:753,0
DA:754,0
DA:755,0
DA:756,0
DA:757,0
DA:758,0
DA:759,0
DA:760,0
DA:761,0
DA:763,0
DA:764,0
DA:765,0
DA:766,0
DA:767,0
DA:768,0
DA:769,0
DA:770,0
DA:771,0
DA:773,0
DA:774,0
DA:776,0
DA:777,0
DA:778,0
DA:779,0
DA:780,0
DA:783,0
DA:784,0
DA:785,0
DA:786,0
DA:789,0
DA:790,0
DA:791,0
DA:794,0
DA:795,0
DA:796,0
DA:797,0
DA:801,0
DA:802,0
DA:804,0
DA:806,0
DA:808,0
DA:809,0
DA:810,0
DA:811,0
DA:815,0
DA:816,0
DA:817,0
DA:819,0
DA:820,0
DA:821,0
DA:823,0
DA:825,0
DA:826,0
DA:827,0
DA:828,0
DA:829,0
DA:830,0
DA:832,0
DA:833,0
DA:834,0
DA:835,0
DA:836,0
DA:839,0
DA:840,0
DA:841,0
DA:842,0
DA:844,0
DA:845,0
DA:846,0
DA:848,0
DA:850,0
DA:851,0
DA:852,0
DA:854,0
DA:855,0
DA:856,0
DA:857,0
DA:860,0
DA:861,0
DA:862,0
DA:863,0
DA:864,0
DA:865,0
DA:866,0
DA:867,0
DA:868,0
DA:869,0
DA:870,0
DA:871,0
DA:872,0
DA:873,0
DA:874,0
DA:875,0
DA:876,0
DA:877,0
DA:878,0
DA:882,0
DA:883,0
DA:884,0
DA:885,0
DA:886,0
DA:888,0
DA:889,0
DA:890,0
DA:891,0
DA:892,0
DA:895,0
DA:896,0
DA:897,0
DA:898,0
DA:903,0
DA:904,0
DA:905,0
DA:906,0
DA:909,0
DA:910,0
DA:911,0
DA:912,0
DA:917,0
DA:918,0
DA:920,0
DA:921,0
DA:924,0
DA:925,0
DA:926,0
DA:927,0
DA:928,0
DA:929,0
DA:930,0
DA:931,0
DA:932,0
DA:933,0
DA:936,0
DA:937,0
DA:938,0
DA:939,0
DA:940,0
DA:941,0
DA:943,0
DA:944,0
DA:945,0
DA:946,0
DA:947,0
DA:948,0
DA:949,0
DA:950,0
DA:951,0
DA:952,0
DA:953,0
DA:954,0
DA:955,0
DA:956,0
DA:958,0
DA:959,0
DA:960,0
DA:961,0
DA:962,0
DA:964,0
DA:965,0
DA:966,0
DA:967,0
DA:968,0
DA:969,0
DA:974,0
DA:975,0
DA:976,0
DA:977,0
DA:978,0
DA:981,0
DA:982,0
DA:983,0
DA:984,0
DA:985,0
DA:986,0
DA:990,0
DA:992,0
DA:993,0
DA:994,0
DA:995,0
DA:996,0
DA:997,0
DA:998,0
DA:999,0
DA:1000,0
DA:1001,0
DA:1002,0
DA:1003,0
DA:1006,0
DA:1007,0
DA:1008,0
DA:1009,0
DA:1010,0
DA:1011,0
DA:1012,0
DA:1013,0
DA:1014,0
DA:1015,0
DA:1018,0
DA:1020,0
DA:1021,0
DA:1022,0
DA:1023,0
DA:1024,0
DA:1027,0
DA:1028,0
DA:1029,0
DA:1030,0
DA:1031,0
DA:1032,0
DA:1033,0
DA:1034,0
DA:1036,0
DA:1037,0
DA:1038,0
DA:1039,0
DA:1040,0
DA:1041,0
DA:1042,0
DA:1043,0
DA:1044,0
DA:1046,0
DA:1047,0
DA:1048,0
DA:1049,0
DA:1051,0
DA:1054,0
DA:1057,0
DA:1058,0
DA:1059,0
DA:1060,0
DA:1061,0
DA:1064,0
DA:1065,0
DA:1066,0
DA:1067,0
DA:1068,0
DA:1069,0
DA:1070,0
DA:1071,0
DA:1073,0
DA:1075,0
DA:1076,0
DA:1077,0
DA:1079,0
DA:1080,0
DA:1083,0
DA:1085,0
DA:1086,0
DA:1090,0
DA:1091,0
DA:1092,0
DA:1093,0
DA:1094,0
DA:1095,0
DA:1096,0
DA:1097,0
DA:1136,0
DA:1137,0
DA:1138,0
BRF:0
BRH:0
LF:797
LH:0
end_of_record
SF:/home/abdyhw/Documents/Grilles/inspection-multi-grilles-copy/inspection-officine/src-tauri/src/migration.rs
FN:11,_RNCNvNtCs6hgwym0NSuY_19inspection_officine9migration14should_migrate0B5_
FN:114,_RNCNvNtCs6hgwym0NSuY_19inspection_officine9migration16verify_migration0B5_
FN:121,_RNCNvNtCs6hgwym0NSuY_19inspection_officine9migration16verify_migrations0_0B5_
FN:131,_RNCNvNtCs6hgwym0NSuY_19inspection_officine9migration16verify_migrations1_0B5_
FN:132,_RNCNvNtCs6hgwym0NSuY_19inspection_officine9migration16verify_migrations2_0B5_
FN:142,_RNCNvNtCs6hgwym0NSuY_19inspection_officine9migration16verify_migrations3_0B5_
FN:143,_RNCNvNtCs6hgwym0NSuY_19inspection_officine9migration16verify_migrations4_0B5_
FN:153,_RNCNvNtCs6hgwym0NSuY_19inspection_officine9migration16verify_migrations5_0B5_
FN:154,_RNCNvNtCs6hgwym0NSuY_19inspection_officine9migration16verify_migrations6_0B5_
FN:120,_RNCNvNtCs6hgwym0NSuY_19inspection_officine9migration16verify_migrations_0B5_
FN:21,_RNCNvNtCs6hgwym0NSuY_19inspection_officine9migration29migrate_hardcoded_grids_to_db0B5_
FN:59,_RNCNvNtCs6hgwym0NSuY_19inspection_officine9migration29migrate_hardcoded_grids_to_dbs0_0B5_
FN:77,_RNCNvNtCs6hgwym0NSuY_19inspection_officine9migration29migrate_hardcoded_grids_to_dbs1_0B5_
FN:83,_RNCNvNtCs6hgwym0NSuY_19inspection_officine9migration29migrate_hardcoded_grids_to_dbs2_0B5_
FN:94,_RNCNvNtCs6hgwym0NSuY_19inspection_officine9migration29migrate_hardcoded_grids_to_dbs3_0B5_
FN:45,_RNCNvNtCs6hgwym0NSuY_19inspection_officine9migration29migrate_hardcoded_grids_to_dbs_0B5_
FN:6,_RNvNtCs6hgwym0NSuY_19inspection_officine9migration14should_migrate
FN:113,_RNvNtCs6hgwym0NSuY_19inspection_officine9migration16verify_migration
FN:20,_RNvNtCs6hgwym0NSuY_19inspection_officine9migration29migrate_hardcoded_grids_to_db
FN:166,_RNvNtNtCs6hgwym0NSuY_19inspection_officine9migration5testss_26test_hardcoded_grids_exist
FNDA:0,_RNCNvNtCs6hgwym0NSuY_19inspection_officine9migration14should_migrate0B5_
FNDA:0,_RNCNvNtCs6hgwym0NSuY_19inspection_officine9migration16verify_migration0B5_
FNDA:0,_RNCNvNtCs6hgwym0NSuY_19inspection_officine9migration16verify_migrations0_0B5_
FNDA:0,_RNCNvNtCs6hgwym0NSuY_19inspection_officine9migration16verify_migrations1_0B5_
FNDA:0,_RNCNvNtCs6hgwym0NSuY_19inspection_officine9migration16verify_migrations2_0B5_
FNDA:0,_RNCNvNtCs6hgwym0NSuY_19inspection_officine9migration16verify_migrations3_0B5_
FNDA:0,_RNCNvNtCs6hgwym0NSuY_19inspection_officine9migration16verify_migrations4_0B5_
FNDA:0,_RNCNvNtCs6hgwym0NSuY_19inspection_officine9migration16verify_migrations5_0B5_
FNDA:0,_RNCNvNtCs6hgwym0NSuY_19inspection_officine9migration16verify_migrations6_0B5_
FNDA:0,_RNCNvNtCs6hgwym0NSuY_19inspection_officine9migration16verify_migrations_0B5_
FNDA:0,_RNCNvNtCs6hgwym0NSuY_19inspection_officine9migration29migrate_hardcoded_grids_to_db0B5_
FNDA:0,_RNCNvNtCs6hgwym0NSuY_19inspection_officine9migration29migrate_hardcoded_grids_to_dbs0_0B5_
FNDA:0,_RNCNvNtCs6hgwym0NSuY_19inspection_officine9migration29migrate_hardcoded_grids_to_dbs1_0B5_
FNDA:0,_RNCNvNtCs6hgwym0NSuY_19inspection_officine9migration29migrate_hardcoded_grids_to_dbs2_0B5_
FNDA:0,_RNCNvNtCs6hgwym0NSuY_19inspection_officine9migration29migrate_hardcoded_grids_to_dbs3_0B5_
FNDA:0,_RNCNvNtCs6hgwym0NSuY_19inspection_officine9migration29migrate_hardcoded_grids_to_dbs_0B5_
FNDA:0,_RNvNtCs6hgwym0NSuY_19inspection_officine9migration14should_migrate
FNDA:0,_RNvNtCs6hgwym0NSuY_19inspection_officine9migration16verify_migration
FNDA:0,_RNvNtCs6hgwym0NSuY_19inspection_officine9migration29migrate_hardcoded_grids_to_db
FNDA:0,_RNvNtNtCs6hgwym0NSuY_19inspection_officine9migration5testss_26test_hardcoded_grids_exist
FNF:20
FNH:0
DA:6,0
DA:7,0
DA:8,0
DA:9,0
DA:10,0
DA:11,0
DA:13,0
DA:14,0
DA:15,0
DA:16,0
DA:17,0
DA:20,0
DA:21,0
DA:24,0
DA:25,0
DA:26,0
DA:29,0
DA:31,0
DA:33,0
DA:34,0
DA:35,0
DA:36,0
DA:37,0
DA:38,0
DA:39,0
DA:40,0
DA:41,0
DA:42,0
DA:43,0
DA:44,0
DA:45,0
DA:48,0
DA:49,0
DA:50,0
DA:51,0
DA:52,0
DA:53,0
DA:54,0
DA:55,0
DA:56,0
DA:57,0
DA:58,0
DA:59,0
DA:62,0
DA:63,0
DA:64,0
DA:65,0
DA:66,0
DA:67,0
DA:74,0
DA:75,0
DA:77,0
DA:82,0
DA:83,0
DA:85,0
DA:86,0
DA:87,0
DA:88,0
DA:89,0
DA:90,0
DA:91,0
DA:92,0
DA:93,0
DA:94,0
DA:96,0
DA:100,0
DA:101,0
DA:102,0
DA:103,0
DA:104,0
DA:105,0
DA:106,0
DA:109,0
DA:110,0
DA:113,0
DA:114,0
DA:117,0
DA:118,0
DA:119,0
DA:120,0
DA:121,0
DA:123,0
DA:124,0
DA:125,0
DA:128,0
DA:129,0
DA:130,0
DA:131,0
DA:132,0
DA:134,0
DA:135,0
DA:136,0
DA:139,0
DA:140,0
DA:141,0
DA:142,0
DA:143,0
DA:145,0
DA:146,0
DA:147,0
DA:150,0
DA:151,0
DA:152,0
DA:153,0
DA:154,0
DA:156,0
DA:157,0
DA:158,0
DA:160,0
DA:161,0
DA:166,0
DA:167,0
DA:168,0
DA:169,0
DA:170,0
DA:171,0
BRF:0
BRH:0
LF:127
LH:0
end_of_record
SF:/home/abdyhw/Documents/Grilles/inspection-multi-grilles-copy/inspection-officine/src-tauri/src/offline_mode.rs
FN:252,_RNCNvMs0_NtCs6hgwym0NSuY_19inspection_officine12offline_modeNtB7_14OfflineManager16remove_operation0B9_
FN:291,_RNCNvMs0_NtCs6hgwym0NSuY_19inspection_officine12offline_modeNtB7_14OfflineManager19export_pending_data0B9_
FN:297,_RNCNvMs0_NtCs6hgwym0NSuY_19inspection_officine12offline_modeNtB7_14OfflineManager19import_pending_data0B9_
FN:168,_RNvMs0_NtCs6hgwym0NSuY_19inspection_officine12offline_modeNtB5_14OfflineManager12attempt_sync
FN:250,_RNvMs0_NtCs6hgwym0NSuY_19inspection_officine12offline_modeNtB5_14OfflineManager16remove_operation
FN:282,_RNvMs0_NtCs6hgwym0NSuY_19inspection_officine12offline_modeNtB5_14OfflineManager17clear_sync_errors
FN:288,_RNvMs0_NtCs6hgwym0NSuY_19inspection_officine12offline_modeNtB5_14OfflineManager19export_pending_data
FN:295,_RNvMs0_NtCs6hgwym0NSuY_19inspection_officine12offline_modeNtB5_14OfflineManager19import_pending_data
FN:227,_RNvMs0_NtCs6hgwym0NSuY_19inspection_officine12offline_modeNtB5_14OfflineManager21sync_single_operation
FN:266,_RNvMs0_NtCs6hgwym0NSuY_19inspection_officine12offline_modeNtB5_14OfflineManager22check_offline_duration
FN:404,_RNvXNtNtCs6hgwym0NSuY_19inspection_officine12offline_mode5testsNtB2_18MockNetworkCheckerNtB4_19NetworkCheckerTrait9is_online
FN:330,_RNvXs1_NtCs6hgwym0NSuY_19inspection_officine12offline_modeNtNtB7_2db8DatabaseNtB5_15OfflineAwareApi27save_response_offline_aware
FN:366,_RNvXs1_NtCs6hgwym0NSuY_19inspection_officine12offline_modeNtNtB7_2db8DatabaseNtB5_15OfflineAwareApi31create_inspection_offline_aware
FN:439,_RNvNtNtCs6hgwym0NSuY_19inspection_officine12offline_mode5testss_18test_config_update
FN:423,_RNvNtNtCs6hgwym0NSuY_19inspection_officine12offline_mode5testss_20test_queue_operation
FN:416,_RNvNtNtCs6hgwym0NSuY_19inspection_officine12offline_mode5testss_23test_connectivity_check
FN:410,_RNvNtNtCs6hgwym0NSuY_19inspection_officine12offline_mode5testss_29test_offline_manager_creation
FN:277,_RNvMs0_NtCs6hgwym0NSuY_19inspection_officine12offline_modeNtB5_14OfflineManager13update_config
FN:153,_RNvMs0_NtCs6hgwym0NSuY_19inspection_officine12offline_modeNtB5_14OfflineManager15queue_operation
FN:116,_RNvMs0_NtCs6hgwym0NSuY_19inspection_officine12offline_modeNtB5_14OfflineManager18check_connectivity
FN:261,_RNvMs0_NtCs6hgwym0NSuY_19inspection_officine12offline_modeNtB5_14OfflineManager22get_pending_operations
FN:98,_RNvMs0_NtCs6hgwym0NSuY_19inspection_officine12offline_modeNtB5_14OfflineManager3new
FN:256,_RNvMs0_NtCs6hgwym0NSuY_19inspection_officine12offline_modeNtB5_14OfflineManager9get_state
FN:29,_RNvXNtCs6hgwym0NSuY_19inspection_officine12offline_modeNtB2_13OfflineConfigNtNtCs3XFJfFEDSOQ_4core7default7Default7default
FN:89,_RNvXs_NtCs6hgwym0NSuY_19inspection_officine12offline_modeNtB4_14NetworkCheckerNtB4_19NetworkCheckerTrait9is_online
FNDA:0,_RNCNvMs0_NtCs6hgwym0NSuY_19inspection_officine12offline_modeNtB7_14OfflineManager16remove_operation0B9_
FNDA:0,_RNCNvMs0_NtCs6hgwym0NSuY_19inspection_officine12offline_modeNtB7_14OfflineManager19export_pending_data0B9_
FNDA:0,_RNCNvMs0_NtCs6hgwym0NSuY_19inspection_officine12offline_modeNtB7_14OfflineManager19import_pending_data0B9_
FNDA:0,_RNvMs0_NtCs6hgwym0NSuY_19inspection_officine12offline_modeNtB5_14OfflineManager12attempt_sync
FNDA:0,_RNvMs0_NtCs6hgwym0NSuY_19inspection_officine12offline_modeNtB5_14OfflineManager16remove_operation
FNDA:0,_RNvMs0_NtCs6hgwym0NSuY_19inspection_officine12offline_modeNtB5_14OfflineManager17clear_sync_errors
FNDA:0,_RNvMs0_NtCs6hgwym0NSuY_19inspection_officine12offline_modeNtB5_14OfflineManager19export_pending_data
FNDA:0,_RNvMs0_NtCs6hgwym0NSuY_19inspection_officine12offline_modeNtB5_14OfflineManager19import_pending_data
FNDA:0,_RNvMs0_NtCs6hgwym0NSuY_19inspection_officine12offline_modeNtB5_14OfflineManager21sync_single_operation
FNDA:0,_RNvMs0_NtCs6hgwym0NSuY_19inspection_officine12offline_modeNtB5_14OfflineManager22check_offline_duration
FNDA:0,_RNvXNtNtCs6hgwym0NSuY_19inspection_officine12offline_mode5testsNtB2_18MockNetworkCheckerNtB4_19NetworkCheckerTrait9is_online
FNDA:0,_RNvXs1_NtCs6hgwym0NSuY_19inspection_officine12offline_modeNtNtB7_2db8DatabaseNtB5_15OfflineAwareApi27save_response_offline_aware
FNDA:0,_RNvXs1_NtCs6hgwym0NSuY_19inspection_officine12offline_modeNtNtB7_2db8DatabaseNtB5_15OfflineAwareApi31create_inspection_offline_aware
FNDA:0,_RNvNtNtCs6hgwym0NSuY_19inspection_officine12offline_mode5testss_18test_config_update
FNDA:0,_RNvNtNtCs6hgwym0NSuY_19inspection_officine12offline_mode5testss_20test_queue_operation
FNDA:0,_RNvNtNtCs6hgwym0NSuY_19inspection_officine12offline_mode5testss_23test_connectivity_check
FNDA:0,_RNvNtNtCs6hgwym0NSuY_19inspection_officine12offline_mode5testss_29test_offline_manager_creation
FNDA:0,_RNvMs0_NtCs6hgwym0NSuY_19inspection_officine12offline_modeNtB5_14OfflineManager13update_config
FNDA:0,_RNvMs0_NtCs6hgwym0NSuY_19inspection_officine12offline_modeNtB5_14OfflineManager15queue_operation
FNDA:0,_RNvMs0_NtCs6hgwym0NSuY_19inspection_officine12offline_modeNtB5_14OfflineManager18check_connectivity
FNDA:0,_RNvMs0_NtCs6hgwym0NSuY_19inspection_officine12offline_modeNtB5_14OfflineManager22get_pending_operations
FNDA:0,_RNvMs0_NtCs6hgwym0NSuY_19inspection_officine12offline_modeNtB5_14OfflineManager3new
FNDA:0,_RNvMs0_NtCs6hgwym0NSuY_19inspection_officine12offline_modeNtB5_14OfflineManager9get_state
FNDA:0,_RNvXNtCs6hgwym0NSuY_19inspection_officine12offline_modeNtB2_13OfflineConfigNtNtCs3XFJfFEDSOQ_4core7default7Default7default
FNDA:0,_RNvXs_NtCs6hgwym0NSuY_19inspection_officine12offline_modeNtB4_14NetworkCheckerNtB4_19NetworkCheckerTrait9is_online
FNF:25
FNH:0
DA:29,0
DA:30,0
DA:31,0
DA:32,0
DA:33,0
DA:34,0
DA:35,0
DA:36,0
DA:89,0
DA:92,0
DA:93,0
DA:98,0
DA:99,0
DA:101,0
DA:102,0
DA:103,0
DA:104,0
DA:105,0
DA:106,0
DA:107,0
DA:108,0
DA:109,0
DA:110,0
DA:111,0
DA:112,0
DA:113,0
DA:116,0
DA:117,0
DA:118,0
DA:120,0
DA:123,0
DA:124,0
DA:125,0
DA:129,0
DA:130,0
DA:131,0
DA:134,0
DA:136,0
DA:137,0
DA:139,0
DA:140,0
DA:141,0
DA:143,0
DA:146,0
DA:149,0
DA:150,0
DA:153,0
DA:154,0
DA:155,0
DA:156,0
DA:158,0
DA:159,0
DA:161,0
DA:162,0
DA:164,0
DA:165,0
DA:168,0
DA:169,0
DA:170,0
DA:171,0
DA:173,0
DA:174,0
DA:175,0
DA:178,0
DA:179,0
DA:180,0
DA:182,0
DA:183,0
DA:186,0
DA:187,0
DA:188,0
DA:189,0
DA:190,0
DA:191,0
DA:192,0
DA:193,0
DA:194,0
DA:195,0
DA:196,0
DA:197,0
DA:198,0
DA:199,0
DA:200,0
DA:201,0
DA:202,0
DA:203,0
DA:204,0
DA:205,0
DA:211,0
DA:212,0
DA:213,0
DA:214,0
DA:217,0
DA:218,0
DA:219,0
DA:220,0
DA:221,0
DA:223,0
DA:224,0
DA:227,0
DA:230,0
DA:232,0
DA:234,0
DA:237,0
DA:239,0
DA:242,0
DA:244,0
DA:247,0
DA:250,0
DA:251,0
DA:252,0
DA:253,0
DA:256,0
DA:257,0
DA:258,0
DA:261,0
DA:262,0
DA:263,0
DA:266,0
DA:267,0
DA:268,0
DA:269,0
DA:270,0
DA:271,0
DA:272,0
DA:273,0
DA:274,0
DA:277,0
DA:278,0
DA:279,0
DA:282,0
DA:283,0
DA:284,0
DA:285,0
DA:288,0
DA:289,0
DA:290,0
DA:291,0
DA:292,0
DA:295,0
DA:296,0
DA:297,0
DA:299,0
DA:300,0
DA:302,0
DA:303,0
DA:305,0
DA:306,0
DA:330,0
DA:331,0
DA:332,0
DA:333,0
DA:334,0
DA:335,0
DA:336,0
DA:337,0
DA:342,0
DA:343,0
DA:344,0
DA:345,0
DA:346,0
DA:347,0
DA:348,0
DA:349,0
DA:350,0
DA:351,0
DA:352,0
DA:353,0
DA:354,0
DA:355,0
DA:357,0
DA:358,0
DA:362,0
DA:364,0
DA:366,0
DA:367,0
DA:368,0
DA:369,0
DA:370,0
DA:372,0
DA:373,0
DA:375,0
DA:376,0
DA:377,0
DA:378,0
DA:379,0
DA:380,0
DA:381,0
DA:382,0
DA:384,0
DA:385,0
DA:388,0
DA:390,0
DA:404,0
DA:405,0
DA:406,0
DA:410,0
DA:411,0
DA:412,0
DA:413,0
DA:416,0
DA:417,0
DA:418,0
DA:419,0
DA:420,0
DA:423,0
DA:424,0
DA:425,0
DA:426,0
DA:427,0
DA:428,0
DA:429,0
DA:430,0
DA:431,0
DA:432,0
DA:434,0
DA:435,0
DA:436,0
DA:439,0
DA:440,0
DA:441,0
DA:442,0
DA:443,0
DA:444,0
DA:445,0
DA:446,0
DA:448,0
DA:449,0
DA:450,0
BRF:0
BRH:0
LF:232
LH:0
end_of_record
SF:/home/abdyhw/Documents/Grilles/inspection-multi-grilles-copy/inspection-officine/src-tauri/src/pdf_report.rs
FN:475,_RNvMs_NtCs6hgwym0NSuY_19inspection_officine10pdf_reportNtB4_18PdfReportGenerator10add_footer
FN:136,_RNvMs_NtCs6hgwym0NSuY_19inspection_officine10pdf_reportNtB4_18PdfReportGenerator10add_header
FN:517,_RNvMs_NtCs6hgwym0NSuY_19inspection_officine10pdf_reportNtB4_18PdfReportGenerator11create_font
FN:439,_RNvMs_NtCs6hgwym0NSuY_19inspection_officine10pdf_reportNtB4_18PdfReportGenerator14add_appendices
FN:179,_RNvMs_NtCs6hgwym0NSuY_19inspection_officine10pdf_reportNtB4_18PdfReportGenerator14add_cover_page
FN:550,_RNvMs_NtCs6hgwym0NSuY_19inspection_officine10pdf_reportNtB4_18PdfReportGenerator14add_result_box
FN:524,_RNvMs_NtCs6hgwym0NSuY_19inspection_officine10pdf_reportNtB4_18PdfReportGenerator14add_text_block
FN:338,_RNvMs_NtCs6hgwym0NSuY_19inspection_officine10pdf_reportNtB4_18PdfReportGenerator19add_section_details
FN:263,_RNvMs_NtCs6hgwym0NSuY_19inspection_officine10pdf_reportNtB4_18PdfReportGenerator21add_table_of_contents
FN:301,_RNvMs_NtCs6hgwym0NSuY_19inspection_officine10pdf_reportNtB4_18PdfReportGenerator22add_general_statistics
FN:92,_RNvMs_NtCs6hgwym0NSuY_19inspection_officine10pdf_reportNtB4_18PdfReportGenerator26generate_inspection_report
FN:85,_RNvMs_NtCs6hgwym0NSuY_19inspection_officine10pdf_reportNtB4_18PdfReportGenerator3new
FN:65,_RNvXNtCs6hgwym0NSuY_19inspection_officine10pdf_reportNtB2_11ReportStyleNtNtCs3XFJfFEDSOQ_4core7default7Default7default
FN:594,_RNvNtNtCs6hgwym0NSuY_19inspection_officine10pdf_report5testss_24test_style_customization
FN:612,_RNvNtNtCs6hgwym0NSuY_19inspection_officine10pdf_report5testss_25test_sample_data_creation
FN:588,_RNvNtNtCs6hgwym0NSuY_19inspection_officine10pdf_report5testss_27test_pdf_generator_creation
FNDA:0,_RNvMs_NtCs6hgwym0NSuY_19inspection_officine10pdf_reportNtB4_18PdfReportGenerator10add_footer
FNDA:0,_RNvMs_NtCs6hgwym0NSuY_19inspection_officine10pdf_reportNtB4_18PdfReportGenerator10add_header
FNDA:0,_RNvMs_NtCs6hgwym0NSuY_19inspection_officine10pdf_reportNtB4_18PdfReportGenerator11create_font
FNDA:0,_RNvMs_NtCs6hgwym0NSuY_19inspection_officine10pdf_reportNtB4_18PdfReportGenerator14add_appendices
FNDA:0,_RNvMs_NtCs6hgwym0NSuY_19inspection_officine10pdf_reportNtB4_18PdfReportGenerator14add_cover_page
FNDA:0,_RNvMs_NtCs6hgwym0NSuY_19inspection_officine10pdf_reportNtB4_18PdfReportGenerator14add_result_box
FNDA:0,_RNvMs_NtCs6hgwym0NSuY_19inspection_officine10pdf_reportNtB4_18PdfReportGenerator14add_text_block
FNDA:0,_RNvMs_NtCs6hgwym0NSuY_19inspection_officine10pdf_reportNtB4_18PdfReportGenerator19add_section_details
FNDA:0,_RNvMs_NtCs6hgwym0NSuY_19inspection_officine10pdf_reportNtB4_18PdfReportGenerator21add_table_of_contents
FNDA:0,_RNvMs_NtCs6hgwym0NSuY_19inspection_officine10pdf_reportNtB4_18PdfReportGenerator22add_general_statistics
FNDA:0,_RNvMs_NtCs6hgwym0NSuY_19inspection_officine10pdf_reportNtB4_18PdfReportGenerator26generate_inspection_report
FNDA:0,_RNvMs_NtCs6hgwym0NSuY_19inspection_officine10pdf_reportNtB4_18PdfReportGenerator3new
FNDA:0,_RNvXNtCs6hgwym0NSuY_19inspection_officine10pdf_reportNtB2_11ReportStyleNtNtCs3XFJfFEDSOQ_4core7default7Default7default
FNDA:0,_RNvNtNtCs6hgwym0NSuY_19inspection_officine10pdf_report5testss_24test_style_customization
FNDA:0,_RNvNtNtCs6hgwym0NSuY_19inspection_officine10pdf_report5testss_25test_sample_data_creation
FNDA:0,_RNvNtNtCs6hgwym0NSuY_19inspection_officine10pdf_report5testss_27test_pdf_generator_creation
FNF:16
FNH:0
DA:65,0
DA:66,0
DA:67,0
DA:68,0
DA:69,0
DA:70,0
DA:71,0
DA:72,0
DA:73,0
DA:74,0
DA:75,0
DA:76,0
DA:85,0
DA:86,0
DA:87,0
DA:88,0
DA:89,0
DA:92,0
DA:93,0
DA:94,0
DA:95,0
DA:96,0
DA:98,0
DA:99,0
DA:100,0
DA:101,0
DA:102,0
DA:103,0
DA:106,0
DA:109,0
DA:112,0
DA:115,0
DA:118,0
DA:121,0
DA:124,0
DA:127,0
DA:130,0
DA:132,0
DA:133,0
DA:136,0
DA:137,0
DA:138,0
DA:139,0
DA:140,0
DA:142,0
DA:144,0
DA:145,0
DA:146,0
DA:147,0
DA:151,0
DA:153,0
DA:154,0
DA:155,0
DA:156,0
DA:159,0
DA:161,0
DA:162,0
DA:163,0
DA:164,0
DA:175,0
DA:176,0
DA:179,0
DA:180,0
DA:181,0
DA:182,0
DA:183,0
DA:185,0
DA:186,0
DA:187,0
DA:188,0
DA:189,0
DA:190,0
DA:191,0
DA:192,0
DA:194,0
DA:195,0
DA:196,0
DA:197,0
DA:198,0
DA:199,0
DA:200,0
DA:202,0
DA:203,0
DA:204,0
DA:205,0
DA:206,0
DA:207,0
DA:208,0
DA:210,0
DA:211,0
DA:212,0
DA:213,0
DA:214,0
DA:215,0
DA:216,0
DA:219,0
DA:221,0
DA:222,0
DA:223,0
DA:224,0
DA:227,0
DA:228,0
DA:229,0
DA:230,0
DA:231,0
DA:232,0
DA:233,0
DA:235,0
DA:236,0
DA:237,0
DA:238,0
DA:239,0
DA:240,0
DA:241,0
DA:243,0
DA:244,0
DA:245,0
DA:246,0
DA:247,0
DA:248,0
DA:249,0
DA:251,0
DA:252,0
DA:253,0
DA:254,0
DA:255,0
DA:256,0
DA:257,0
DA:259,0
DA:260,0
DA:263,0
DA:264,0
DA:265,0
DA:266,0
DA:267,0
DA:268,0
DA:270,0
DA:271,0
DA:272,0
DA:273,0
DA:276,0
DA:277,0
DA:278,0
DA:279,0
DA:280,0
DA:281,0
DA:282,0
DA:285,0
DA:286,0
DA:287,0
DA:288,0
DA:289,0
DA:290,0
DA:291,0
DA:292,0
DA:294,0
DA:297,0
DA:298,0
DA:301,0
DA:302,0
DA:303,0
DA:304,0
DA:305,0
DA:306,0
DA:308,0
DA:309,0
DA:310,0
DA:311,0
DA:315,0
DA:316,0
DA:317,0
DA:319,0
DA:320,0
DA:321,0
DA:322,0
DA:323,0
DA:324,0
DA:325,0
DA:328,0
DA:329,0
DA:330,0
DA:331,0
DA:334,0
DA:335,0
DA:338,0
DA:339,0
DA:340,0
DA:341,0
DA:342,0
DA:343,0
DA:345,0
DA:346,0
DA:347,0
DA:348,0
DA:351,0
DA:352,0
DA:353,0
DA:355,0
DA:356,0
DA:359,0
DA:360,0
DA:361,0
DA:362,0
DA:363,0
DA:364,0
DA:366,0
DA:369,0
DA:370,0
DA:371,0
DA:372,0
DA:373,0
DA:376,0
DA:377,0
DA:378,0
DA:379,0
DA:380,0
DA:381,0
DA:382,0
DA:383,0
DA:385,0
DA:387,0
DA:390,0
DA:391,0
DA:393,0
DA:394,0
DA:395,0
DA:396,0
DA:398,0
DA:400,0
DA:401,0
DA:402,0
DA:403,0
DA:405,0
DA:406,0
DA:407,0
DA:408,0
DA:411,0
DA:412,0
DA:413,0
DA:414,0
DA:415,0
DA:416,0
DA:418,0
DA:420,0
DA:421,0
DA:422,0
DA:423,0
DA:424,0
DA:425,0
DA:426,0
DA:428,0
DA:429,0
DA:431,0
DA:432,0
DA:435,0
DA:436,0
DA:439,0
DA:440,0
DA:441,0
DA:442,0
DA:443,0
DA:444,0
DA:446,0
DA:447,0
DA:448,0
DA:449,0
DA:452,0
DA:454,0
DA:455,0
DA:456,0
DA:459,0
DA:460,0
DA:461,0
DA:462,0
DA:463,0
DA:464,0
DA:465,0
DA:466,0
DA:468,0
DA:471,0
DA:472,0
DA:475,0
DA:476,0
DA:477,0
DA:478,0
DA:479,0
DA:489,0
DA:490,0
DA:491,0
DA:492,0
DA:493,0
DA:494,0
DA:497,0
DA:498,0
DA:499,0
DA:500,0
DA:501,0
DA:502,0
DA:505,0
DA:507,0
DA:508,0
DA:509,0
DA:510,0
DA:513,0
DA:514,0
DA:517,0
DA:520,0
DA:521,0
DA:524,0
DA:525,0
DA:526,0
DA:527,0
DA:528,0
DA:529,0
DA:530,0
DA:531,0
DA:532,0
DA:533,0
DA:534,0
DA:535,0
DA:536,0
DA:537,0
DA:539,0
DA:540,0
DA:541,0
DA:542,0
DA:543,0
DA:544,0
DA:546,0
DA:547,0
DA:550,0
DA:551,0
DA:552,0
DA:553,0
DA:554,0
DA:555,0
DA:556,0
DA:557,0
DA:562,0
DA:563,0
DA:564,0
DA:565,0
DA:566,0
DA:567,0
DA:571,0
DA:572,0
DA:573,0
DA:574,0
DA:575,0
DA:576,0
DA:579,0
DA:580,0
DA:588,0
DA:589,0
DA:590,0
DA:591,0
DA:594,0
DA:595,0
DA:596,0
DA:597,0
DA:598,0
DA:599,0
DA:600,0
DA:601,0
DA:602,0
DA:603,0
DA:604,0
DA:606,0
DA:607,0
DA:608,0
DA:609,0
DA:612,0
DA:613,0
DA:614,0
DA:615,0
DA:616,0
DA:617,0
DA:618,0
DA:619,0
DA:620,0
DA:621,0
DA:622,0
DA:623,0
DA:624,0
DA:625,0
DA:626,0
DA:627,0
DA:629,0
DA:630,0
DA:631,0
BRF:0
BRH:0
LF:390
LH:0
end_of_record
SF:/home/abdyhw/Documents/Grilles/inspection-multi-grilles-copy/inspection-officine/src-tauri/src/storage.rs
FN:448,_RNCNCNvNtCs6hgwym0NSuY_19inspection_officine7storage13list_plannings0_00B7_
FN:553,_RNCNvNtCs6hgwym0NSuY_19inspection_officine7storage12get_settings0B5_
FN:556,_RNCNvNtCs6hgwym0NSuY_19inspection_officine7storage12get_settingss0_0B5_
FN:560,_RNCNvNtCs6hgwym0NSuY_19inspection_officine7storage12get_settingss1_0B5_
FN:554,_RNCNvNtCs6hgwym0NSuY_19inspection_officine7storage12get_settingss_0B5_
FN:428,_RNCNvNtCs6hgwym0NSuY_19inspection_officine7storage13list_planning0B5_
FN:434,_RNCNvNtCs6hgwym0NSuY_19inspection_officine7storage13list_plannings0_0B5_
FN:453,_RNCNvNtCs6hgwym0NSuY_19inspection_officine7storage13list_plannings1_0B5_
FN:454,_RNCNvNtCs6hgwym0NSuY_19inspection_officine7storage13list_plannings2_0B5_
FN:432,_RNCNvNtCs6hgwym0NSuY_19inspection_officine7storage13list_plannings_0B5_
FN:569,_RNCNvNtCs6hgwym0NSuY_19inspection_officine7storage13save_settings0B5_
FN:580,_RNCNvNtCs6hgwym0NSuY_19inspection_officine7storage13save_settingss_0B5_
FN:277,_RNCNvNtCs6hgwym0NSuY_19inspection_officine7storage14get_inspection0B5_
FN:301,_RNCNvNtCs6hgwym0NSuY_19inspection_officine7storage14get_inspections0_0B5_
FN:287,_RNCNvNtCs6hgwym0NSuY_19inspection_officine7storage14get_inspections_0B5_
FN:460,_RNCNvNtCs6hgwym0NSuY_19inspection_officine7storage15create_planning0B5_
FN:467,_RNCNvNtCs6hgwym0NSuY_19inspection_officine7storage15create_plannings_0B5_
FN:488,_RNCNvNtCs6hgwym0NSuY_19inspection_officine7storage15delete_planning0B5_
FN:489,_RNCNvNtCs6hgwym0NSuY_19inspection_officine7storage15delete_plannings_0B5_
FN:477,_RNCNvNtCs6hgwym0NSuY_19inspection_officine7storage15update_planning0B5_
FN:482,_RNCNvNtCs6hgwym0NSuY_19inspection_officine7storage15update_plannings_0B5_
FN:351,_RNCNvNtCs6hgwym0NSuY_19inspection_officine7storage19get_report_snapshot0B5_
FN:356,_RNCNvNtCs6hgwym0NSuY_19inspection_officine7storage19get_report_snapshots_0B5_
FN:514,_RNCNvNtCs6hgwym0NSuY_19inspection_officine7storage21list_indisponibilites0B5_
FN:518,_RNCNvNtCs6hgwym0NSuY_19inspection_officine7storage21list_indisponibilitess0_0B5_
FN:527,_RNCNvNtCs6hgwym0NSuY_19inspection_officine7storage21list_indisponibilitess1_0B5_
FN:528,_RNCNvNtCs6hgwym0NSuY_19inspection_officine7storage21list_indisponibilitess2_0B5_
FN:517,_RNCNvNtCs6hgwym0NSuY_19inspection_officine7storage21list_indisponibilitess_0B5_
FN:323,_RNCNvNtCs6hgwym0NSuY_19inspection_officine7storage21list_report_snapshots0B5_
FN:329,_RNCNvNtCs6hgwym0NSuY_19inspection_officine7storage21list_report_snapshotss0_0B5_
FN:343,_RNCNvNtCs6hgwym0NSuY_19inspection_officine7storage21list_report_snapshotss1_0B5_
FN:344,_RNCNvNtCs6hgwym0NSuY_19inspection_officine7storage21list_report_snapshotss2_0B5_
FN:327,_RNCNvNtCs6hgwym0NSuY_19inspection_officine7storage21list_report_snapshotss_0B5_
FN:534,_RNCNvNtCs6hgwym0NSuY_19inspection_officine7storage22create_indisponibilite0B5_
FN:540,_RNCNvNtCs6hgwym0NSuY_19inspection_officine7storage22create_indisponibilites_0B5_
FN:380,_RNCNvNtCs6hgwym0NSuY_19inspection_officine7storage22create_report_snapshot0B5_
FN:390,_RNCNvNtCs6hgwym0NSuY_19inspection_officine7storage22create_report_snapshots0_0B5_
FN:383,_RNCNvNtCs6hgwym0NSuY_19inspection_officine7storage22create_report_snapshots_0B5_
FN:545,_RNCNvNtCs6hgwym0NSuY_19inspection_officine7storage22delete_indisponibilite0B5_
FN:546,_RNCNvNtCs6hgwym0NSuY_19inspection_officine7storage22delete_indisponibilites_0B5_
FN:217,_RNCNvNtCs6hgwym0NSuY_19inspection_officine7storage22update_inspection_meta0B5_
FN:223,_RNCNvNtCs6hgwym0NSuY_19inspection_officine7storage22update_inspection_metas_0B5_
FN:552,_RNvNtCs6hgwym0NSuY_19inspection_officine7storage12get_settings
FN:427,_RNvNtCs6hgwym0NSuY_19inspection_officine7storage13list_planning
FN:568,_RNvNtCs6hgwym0NSuY_19inspection_officine7storage13save_settings
FN:276,_RNvNtCs6hgwym0NSuY_19inspection_officine7storage14get_inspection
FN:459,_RNvNtCs6hgwym0NSuY_19inspection_officine7storage15create_planning
FN:487,_RNvNtCs6hgwym0NSuY_19inspection_officine7storage15delete_planning
FN:476,_RNvNtCs6hgwym0NSuY_19inspection_officine7storage15update_planning
FN:350,_RNvNtCs6hgwym0NSuY_19inspection_officine7storage19get_report_snapshot
FN:513,_RNvNtCs6hgwym0NSuY_19inspection_officine7storage21list_indisponibilites
FN:322,_RNvNtCs6hgwym0NSuY_19inspection_officine7storage21list_report_snapshots
FN:533,_RNvNtCs6hgwym0NSuY_19inspection_officine7storage22create_indisponibilite
FN:379,_RNvNtCs6hgwym0NSuY_19inspection_officine7storage22create_report_snapshot
FN:544,_RNvNtCs6hgwym0NSuY_19inspection_officine7storage22delete_indisponibilite
FN:216,_RNvNtCs6hgwym0NSuY_19inspection_officine7storage22update_inspection_meta
FN:809,_RNCNvNtNtCs6hgwym0NSuY_19inspection_officine7storage5testss_22test_delete_inspection0B7_
FN:871,_RNCNvNtNtCs6hgwym0NSuY_19inspection_officine7storage5testss_38test_list_inspections_filter_by_status0B7_
FN:795,_RNCNvNtNtCs6hgwym0NSuY_19inspection_officine7storage5testss_48test_save_response_changes_status_to_in_progress0B7_
FN:594,_RNvNtNtCs6hgwym0NSuY_19inspection_officine7storage5tests14create_test_db
FN:640,_RNvNtNtCs6hgwym0NSuY_19inspection_officine7storage5tests17insert_inspection
FN:817,_RNvNtNtCs6hgwym0NSuY_19inspection_officine7storage5testss_21test_list_inspections
FN:651,_RNvNtNtCs6hgwym0NSuY_19inspection_officine7storage5testss_22test_create_inspection
FN:803,_RNvNtNtCs6hgwym0NSuY_19inspection_officine7storage5testss_22test_delete_inspection
FN:886,_RNvNtNtCs6hgwym0NSuY_19inspection_officine7storage5testss_24test_get_responses_empty
FN:838,_RNvNtNtCs6hgwym0NSuY_19inspection_officine7storage5testss_25test_progress_calculation
FN:894,_RNvNtNtCs6hgwym0NSuY_19inspection_officine7storage5testss_25test_save_response_update
FN:762,_RNvNtNtCs6hgwym0NSuY_19inspection_officine7storage5testss_25test_save_response_upsert
FN:752,_RNvNtNtCs6hgwym0NSuY_19inspection_officine7storage5testss_26test_save_and_get_response
FN:674,_RNvNtNtCs6hgwym0NSuY_19inspection_officine7storage5testss_29test_status_draft_to_archived
FN:776,_RNvNtNtCs6hgwym0NSuY_19inspection_officine7storage5testss_30test_save_response_risk_fields
FN:667,_RNvNtNtCs6hgwym0NSuY_19inspection_officine7storage5testss_32test_status_draft_to_in_progress
FN:688,_RNvNtNtCs6hgwym0NSuY_19inspection_officine7storage5testss_32test_status_in_progress_to_draft
FN:709,_RNvNtNtCs6hgwym0NSuY_19inspection_officine7storage5testss_33test_status_validated_to_archived
FN:854,_RNvNtNtCs6hgwym0NSuY_19inspection_officine7storage5testss_34test_nonexistent_inspection_status
FN:695,_RNvNtNtCs6hgwym0NSuY_19inspection_officine7storage5testss_34test_status_completed_to_validated
FN:826,_RNvNtNtCs6hgwym0NSuY_19inspection_officine7storage5testss_35test_list_inspections_filter_status
FN:702,_RNvNtNtCs6hgwym0NSuY_19inspection_officine7storage5testss_36test_status_completed_to_in_progress
FN:681,_RNvNtNtCs6hgwym0NSuY_19inspection_officine7storage5testss_36test_status_in_progress_to_completed
FN:862,_RNvNtNtCs6hgwym0NSuY_19inspection_officine7storage5testss_38test_list_inspections_filter_by_status
FN:718,_RNvNtNtCs6hgwym0NSuY_19inspection_officine7storage5testss_38test_status_draft_to_completed_invalid
FN:727,_RNvNtNtCs6hgwym0NSuY_19inspection_officine7storage5testss_38test_status_draft_to_validated_invalid
FN:743,_RNvNtNtCs6hgwym0NSuY_19inspection_officine7storage5testss_38test_status_validated_to_draft_invalid
FN:734,_RNvNtNtCs6hgwym0NSuY_19inspection_officine7storage5testss_40test_status_archived_to_anything_invalid
FN:789,_RNvNtNtCs6hgwym0NSuY_19inspection_officine7storage5testss_48test_save_response_changes_status_to_in_progress
FN:229,_RNvNtCs6hgwym0NSuY_19inspection_officine7storage10set_status
FN:137,_RNvNtCs6hgwym0NSuY_19inspection_officine7storage12get_progress
FN:159,_RNvNtCs6hgwym0NSuY_19inspection_officine7storage13get_responses
FN:187,_RNvNtCs6hgwym0NSuY_19inspection_officine7storage13save_response
FN:72,_RNvNtCs6hgwym0NSuY_19inspection_officine7storage16list_inspections
FN:56,_RNvNtCs6hgwym0NSuY_19inspection_officine7storage17create_inspection
FN:267,_RNvNtCs6hgwym0NSuY_19inspection_officine7storage17delete_inspection
FN:169,_RNCNCNvNtCs6hgwym0NSuY_19inspection_officine7storage13get_responsess0_00B7_
FN:230,_RNCNvNtCs6hgwym0NSuY_19inspection_officine7storage10set_status0B5_
FN:237,_RNCNvNtCs6hgwym0NSuY_19inspection_officine7storage10set_statuss0_0B5_
FN:255,_RNCNvNtCs6hgwym0NSuY_19inspection_officine7storage10set_statuss1_0B5_
FN:260,_RNCNvNtCs6hgwym0NSuY_19inspection_officine7storage10set_statuss2_0B5_
FN:236,_RNCNvNtCs6hgwym0NSuY_19inspection_officine7storage10set_statuss_0B5_
FN:140,_RNCNvNtCs6hgwym0NSuY_19inspection_officine7storage12get_progress0B5_
FN:148,_RNCNvNtCs6hgwym0NSuY_19inspection_officine7storage12get_progresss0_0B5_
FN:152,_RNCNvNtCs6hgwym0NSuY_19inspection_officine7storage12get_progresss1_0B5_
FN:144,_RNCNvNtCs6hgwym0NSuY_19inspection_officine7storage12get_progresss_0B5_
FN:160,_RNCNvNtCs6hgwym0NSuY_19inspection_officine7storage13get_responses0B5_
FN:165,_RNCNvNtCs6hgwym0NSuY_19inspection_officine7storage13get_responsess0_0B5_
FN:178,_RNCNvNtCs6hgwym0NSuY_19inspection_officine7storage13get_responsess1_0B5_
FN:179,_RNCNvNtCs6hgwym0NSuY_19inspection_officine7storage13get_responsess2_0B5_
FN:163,_RNCNvNtCs6hgwym0NSuY_19inspection_officine7storage13get_responsess_0B5_
FN:193,_RNCNvNtCs6hgwym0NSuY_19inspection_officine7storage13save_response0B5_
FN:202,_RNCNvNtCs6hgwym0NSuY_19inspection_officine7storage13save_responses0_0B5_
FN:194,_RNCNvNtCs6hgwym0NSuY_19inspection_officine7storage13save_responses_0B5_
FN:73,_RNCNvNtCs6hgwym0NSuY_19inspection_officine7storage16list_inspections0B5_
FN:98,_RNCNvNtCs6hgwym0NSuY_19inspection_officine7storage16list_inspectionss0_0B5_
FN:100,_RNCNvNtCs6hgwym0NSuY_19inspection_officine7storage16list_inspectionss1_0B5_
FN:122,_RNCNvNtCs6hgwym0NSuY_19inspection_officine7storage16list_inspectionss2_0B5_
FN:123,_RNCNvNtCs6hgwym0NSuY_19inspection_officine7storage16list_inspectionss3_0B5_
FN:97,_RNCNvNtCs6hgwym0NSuY_19inspection_officine7storage16list_inspectionss_0B5_
FN:57,_RNCNvNtCs6hgwym0NSuY_19inspection_officine7storage17create_inspection0B5_
FN:65,_RNCNvNtCs6hgwym0NSuY_19inspection_officine7storage17create_inspections_0B5_
FN:268,_RNCNvNtCs6hgwym0NSuY_19inspection_officine7storage17delete_inspection0B5_
FN:270,_RNCNvNtCs6hgwym0NSuY_19inspection_officine7storage17delete_inspections_0B5_
FNDA:0,_RNCNCNvNtCs6hgwym0NSuY_19inspection_officine7storage13list_plannings0_00B7_
FNDA:0,_RNCNvNtCs6hgwym0NSuY_19inspection_officine7storage12get_settings0B5_
FNDA:0,_RNCNvNtCs6hgwym0NSuY_19inspection_officine7storage12get_settingss0_0B5_
FNDA:0,_RNCNvNtCs6hgwym0NSuY_19inspection_officine7storage12get_settingss1_0B5_
FNDA:0,_RNCNvNtCs6hgwym0NSuY_19inspection_officine7storage12get_settingss_0B5_
FNDA:0,_RNCNvNtCs6hgwym0NSuY_19inspection_officine7storage13list_planning0B5_
FNDA:0,_RNCNvNtCs6hgwym0NSuY_19inspection_officine7storage13list_plannings0_0B5_
FNDA:0,_RNCNvNtCs6hgwym0NSuY_19inspection_officine7storage13list_plannings1_0B5_
FNDA:0,_RNCNvNtCs6hgwym0NSuY_19inspection_officine7storage13list_plannings2_0B5_
FNDA:0,_RNCNvNtCs6hgwym0NSuY_19inspection_officine7storage13list_plannings_0B5_
FNDA:0,_RNCNvNtCs6hgwym0NSuY_19inspection_officine7storage13save_settings0B5_
FNDA:0,_RNCNvNtCs6hgwym0NSuY_19inspection_officine7storage13save_settingss_0B5_
FNDA:0,_RNCNvNtCs6hgwym0NSuY_19inspection_officine7storage14get_inspection0B5_
FNDA:0,_RNCNvNtCs6hgwym0NSuY_19inspection_officine7storage14get_inspections0_0B5_
FNDA:0,_RNCNvNtCs6hgwym0NSuY_19inspection_officine7storage14get_inspections_0B5_
FNDA:0,_RNCNvNtCs6hgwym0NSuY_19inspection_officine7storage15create_planning0B5_
FNDA:0,_RNCNvNtCs6hgwym0NSuY_19inspection_officine7storage15create_plannings_0B5_
FNDA:0,_RNCNvNtCs6hgwym0NSuY_19inspection_officine7storage15delete_planning0B5_
FNDA:0,_RNCNvNtCs6hgwym0NSuY_19inspection_officine7storage15delete_plannings_0B5_
FNDA:0,_RNCNvNtCs6hgwym0NSuY_19inspection_officine7storage15update_planning0B5_
FNDA:0,_RNCNvNtCs6hgwym0NSuY_19inspection_officine7storage15update_plannings_0B5_
FNDA:0,_RNCNvNtCs6hgwym0NSuY_19inspection_officine7storage19get_report_snapshot0B5_
FNDA:0,_RNCNvNtCs6hgwym0NSuY_19inspection_officine7storage19get_report_snapshots_0B5_
FNDA:0,_RNCNvNtCs6hgwym0NSuY_19inspection_officine7storage21list_indisponibilites0B5_
FNDA:0,_RNCNvNtCs6hgwym0NSuY_19inspection_officine7storage21list_indisponibilitess0_0B5_
FNDA:0,_RNCNvNtCs6hgwym0NSuY_19inspection_officine7storage21list_indisponibilitess1_0B5_
FNDA:0,_RNCNvNtCs6hgwym0NSuY_19inspection_officine7storage21list_indisponibilitess2_0B5_
FNDA:0,_RNCNvNtCs6hgwym0NSuY_19inspection_officine7storage21list_indisponibilitess_0B5_
FNDA:0,_RNCNvNtCs6hgwym0NSuY_19inspection_officine7storage21list_report_snapshots0B5_
FNDA:0,_RNCNvNtCs6hgwym0NSuY_19inspection_officine7storage21list_report_snapshotss0_0B5_
FNDA:0,_RNCNvNtCs6hgwym0NSuY_19inspection_officine7storage21list_report_snapshotss1_0B5_
FNDA:0,_RNCNvNtCs6hgwym0NSuY_19inspection_officine7storage21list_report_snapshotss2_0B5_
FNDA:0,_RNCNvNtCs6hgwym0NSuY_19inspection_officine7storage21list_report_snapshotss_0B5_
FNDA:0,_RNCNvNtCs6hgwym0NSuY_19inspection_officine7storage22create_indisponibilite0B5_
FNDA:0,_RNCNvNtCs6hgwym0NSuY_19inspection_officine7storage22create_indisponibilites_0B5_
FNDA:0,_RNCNvNtCs6hgwym0NSuY_19inspection_officine7storage22create_report_snapshot0B5_
FNDA:0,_RNCNvNtCs6hgwym0NSuY_19inspection_officine7storage22create_report_snapshots0_0B5_
FNDA:0,_RNCNvNtCs6hgwym0NSuY_19inspection_officine7storage22create_report_snapshots_0B5_
FNDA:0,_RNCNvNtCs6hgwym0NSuY_19inspection_officine7storage22delete_indisponibilite0B5_
FNDA:0,_RNCNvNtCs6hgwym0NSuY_19inspection_officine7storage22delete_indisponibilites_0B5_
FNDA:0,_RNCNvNtCs6hgwym0NSuY_19inspection_officine7storage22update_inspection_meta0B5_
FNDA:0,_RNCNvNtCs6hgwym0NSuY_19inspection_officine7storage22update_inspection_metas_0B5_
FNDA:0,_RNvNtCs6hgwym0NSuY_19inspection_officine7storage12get_settings
FNDA:0,_RNvNtCs6hgwym0NSuY_19inspection_officine7storage13list_planning
FNDA:0,_RNvNtCs6hgwym0NSuY_19inspection_officine7storage13save_settings
FNDA:0,_RNvNtCs6hgwym0NSuY_19inspection_officine7storage14get_inspection
FNDA:0,_RNvNtCs6hgwym0NSuY_19inspection_officine7storage15create_planning
FNDA:0,_RNvNtCs6hgwym0NSuY_19inspection_officine7storage15delete_planning
FNDA:0,_RNvNtCs6hgwym0NSuY_19inspection_officine7storage15update_planning
FNDA:0,_RNvNtCs6hgwym0NSuY_19inspection_officine7storage19get_report_snapshot
FNDA:0,_RNvNtCs6hgwym0NSuY_19inspection_officine7storage21list_indisponibilites
FNDA:0,_RNvNtCs6hgwym0NSuY_19inspection_officine7storage21list_report_snapshots
FNDA:0,_RNvNtCs6hgwym0NSuY_19inspection_officine7storage22create_indisponibilite
FNDA:0,_RNvNtCs6hgwym0NSuY_19inspection_officine7storage22create_report_snapshot
FNDA:0,_RNvNtCs6hgwym0NSuY_19inspection_officine7storage22delete_indisponibilite
FNDA:0,_RNvNtCs6hgwym0NSuY_19inspection_officine7storage22update_inspection_meta
FNDA:0,_RNCNvNtNtCs6hgwym0NSuY_19inspection_officine7storage5testss_22test_delete_inspection0B7_
FNDA:0,_RNCNvNtNtCs6hgwym0NSuY_19inspection_officine7storage5testss_38test_list_inspections_filter_by_status0B7_
FNDA:0,_RNCNvNtNtCs6hgwym0NSuY_19inspection_officine7storage5testss_48test_save_response_changes_status_to_in_progress0B7_
FNDA:0,_RNvNtNtCs6hgwym0NSuY_19inspection_officine7storage5tests14create_test_db
FNDA:0,_RNvNtNtCs6hgwym0NSuY_19inspection_officine7storage5tests17insert_inspection
FNDA:0,_RNvNtNtCs6hgwym0NSuY_19inspection_officine7storage5testss_21test_list_inspections
FNDA:0,_RNvNtNtCs6hgwym0NSuY_19inspection_officine7storage5testss_22test_create_inspection
FNDA:0,_RNvNtNtCs6hgwym0NSuY_19inspection_officine7storage5testss_22test_delete_inspection
FNDA:0,_RNvNtNtCs6hgwym0NSuY_19inspection_officine7storage5testss_24test_get_responses_empty
FNDA:0,_RNvNtNtCs6hgwym0NSuY_19inspection_officine7storage5testss_25test_progress_calculation
FNDA:0,_RNvNtNtCs6hgwym0NSuY_19inspection_officine7storage5testss_25test_save_response_update
FNDA:0,_RNvNtNtCs6hgwym0NSuY_19inspection_officine7storage5testss_25test_save_response_upsert
FNDA:0,_RNvNtNtCs6hgwym0NSuY_19inspection_officine7storage5testss_26test_save_and_get_response
FNDA:0,_RNvNtNtCs6hgwym0NSuY_19inspection_officine7storage5testss_29test_status_draft_to_archived
FNDA:0,_RNvNtNtCs6hgwym0NSuY_19inspection_officine7storage5testss_30test_save_response_risk_fields
FNDA:0,_RNvNtNtCs6hgwym0NSuY_19inspection_officine7storage5testss_32test_status_draft_to_in_progress
FNDA:0,_RNvNtNtCs6hgwym0NSuY_19inspection_officine7storage5testss_32test_status_in_progress_to_draft
FNDA:0,_RNvNtNtCs6hgwym0NSuY_19inspection_officine7storage5testss_33test_status_validated_to_archived
FNDA:0,_RNvNtNtCs6hgwym0NSuY_19inspection_officine7storage5testss_34test_nonexistent_inspection_status
FNDA:0,_RNvNtNtCs6hgwym0NSuY_19inspection_officine7storage5testss_34test_status_completed_to_validated
FNDA:0,_RNvNtNtCs6hgwym0NSuY_19inspection_officine7storage5testss_35test_list_inspections_filter_status
FNDA:0,_RNvNtNtCs6hgwym0NSuY_19inspection_officine7storage5testss_36test_status_completed_to_in_progress
FNDA:0,_RNvNtNtCs6hgwym0NSuY_19inspection_officine7storage5testss_36test_status_in_progress_to_completed
FNDA:0,_RNvNtNtCs6hgwym0NSuY_19inspection_officine7storage5testss_38test_list_inspections_filter_by_status
FNDA:0,_RNvNtNtCs6hgwym0NSuY_19inspection_officine7storage5testss_38test_status_draft_to_completed_invalid
FNDA:0,_RNvNtNtCs6hgwym0NSuY_19inspection_officine7storage5testss_38test_status_draft_to_validated_invalid
FNDA:0,_RNvNtNtCs6hgwym0NSuY_19inspection_officine7storage5testss_38test_status_validated_to_draft_invalid
FNDA:0,_RNvNtNtCs6hgwym0NSuY_19inspection_officine7storage5testss_40test_status_archived_to_anything_invalid
FNDA:0,_RNvNtNtCs6hgwym0NSuY_19inspection_officine7storage5testss_48test_save_response_changes_status_to_in_progress
FNDA:0,_RNvNtCs6hgwym0NSuY_19inspection_officine7storage10set_status
FNDA:0,_RNvNtCs6hgwym0NSuY_19inspection_officine7storage12get_progress
FNDA:0,_RNvNtCs6hgwym0NSuY_19inspection_officine7storage13get_responses
FNDA:0,_RNvNtCs6hgwym0NSuY_19inspection_officine7storage13save_response
FNDA:0,_RNvNtCs6hgwym0NSuY_19inspection_officine7storage16list_inspections
FNDA:0,_RNvNtCs6hgwym0NSuY_19inspection_officine7storage17create_inspection
FNDA:0,_RNvNtCs6hgwym0NSuY_19inspection_officine7storage17delete_inspection
FNDA:0,_RNCNCNvNtCs6hgwym0NSuY_19inspection_officine7storage13get_responsess0_00B7_
FNDA:0,_RNCNvNtCs6hgwym0NSuY_19inspection_officine7storage10set_status0B5_
FNDA:0,_RNCNvNtCs6hgwym0NSuY_19inspection_officine7storage10set_statuss0_0B5_
FNDA:0,_RNCNvNtCs6hgwym0NSuY_19inspection_officine7storage10set_statuss1_0B5_
FNDA:0,_RNCNvNtCs6hgwym0NSuY_19inspection_officine7storage10set_statuss2_0B5_
FNDA:0,_RNCNvNtCs6hgwym0NSuY_19inspection_officine7storage10set_statuss_0B5_
FNDA:0,_RNCNvNtCs6hgwym0NSuY_19inspection_officine7storage12get_progress0B5_
FNDA:0,_RNCNvNtCs6hgwym0NSuY_19inspection_officine7storage12get_progresss0_0B5_
FNDA:0,_RNCNvNtCs6hgwym0NSuY_19inspection_officine7storage12get_progresss1_0B5_
FNDA:0,_RNCNvNtCs6hgwym0NSuY_19inspection_officine7storage12get_progresss_0B5_
FNDA:0,_RNCNvNtCs6hgwym0NSuY_19inspection_officine7storage13get_responses0B5_
FNDA:0,_RNCNvNtCs6hgwym0NSuY_19inspection_officine7storage13get_responsess0_0B5_
FNDA:0,_RNCNvNtCs6hgwym0NSuY_19inspection_officine7storage13get_responsess1_0B5_
FNDA:0,_RNCNvNtCs6hgwym0NSuY_19inspection_officine7storage13get_responsess2_0B5_
FNDA:0,_RNCNvNtCs6hgwym0NSuY_19inspection_officine7storage13get_responsess_0B5_
FNDA:0,_RNCNvNtCs6hgwym0NSuY_19inspection_officine7storage13save_response0B5_
FNDA:0,_RNCNvNtCs6hgwym0NSuY_19inspection_officine7storage13save_responses0_0B5_
FNDA:0,_RNCNvNtCs6hgwym0NSuY_19inspection_officine7storage13save_responses_0B5_
FNDA:0,_RNCNvNtCs6hgwym0NSuY_19inspection_officine7storage16list_inspections0B5_
FNDA:0,_RNCNvNtCs6hgwym0NSuY_19inspection_officine7storage16list_inspectionss0_0B5_
FNDA:0,_RNCNvNtCs6hgwym0NSuY_19inspection_officine7storage16list_inspectionss1_0B5_
FNDA:0,_RNCNvNtCs6hgwym0NSuY_19inspection_officine7storage16list_inspectionss2_0B5_
FNDA:0,_RNCNvNtCs6hgwym0NSuY_19inspection_officine7storage16list_inspectionss3_0B5_
FNDA:0,_RNCNvNtCs6hgwym0NSuY_19inspection_officine7storage16list_inspectionss_0B5_
FNDA:0,_RNCNvNtCs6hgwym0NSuY_19inspection_officine7storage17create_inspection0B5_
FNDA:0,_RNCNvNtCs6hgwym0NSuY_19inspection_officine7storage17create_inspections_0B5_
FNDA:0,_RNCNvNtCs6hgwym0NSuY_19inspection_officine7storage17delete_inspection0B5_
FNDA:0,_RNCNvNtCs6hgwym0NSuY_19inspection_officine7storage17delete_inspections_0B5_
FNF:120
FNH:0
DA:56,0
DA:57,0
DA:58,0
DA:59,0
DA:61,0
DA:62,0
DA:63,0
DA:64,0
DA:65,0
DA:67,0
DA:68,0
DA:72,0
DA:73,0
DA:75,0
DA:84,0
DA:85,0
DA:87,0
DA:88,0
DA:89,0
DA:90,0
DA:91,0
DA:92,0
DA:93,0
DA:94,0
DA:95,0
DA:97,0
DA:98,0
DA:100,0
DA:101,0
DA:102,0
DA:103,0
DA:106,0
DA:107,0
DA:108,0
DA:109,0
DA:110,0
DA:111,0
DA:112,0
DA:113,0
DA:114,0
DA:115,0
DA:116,0
DA:117,0
DA:118,0
DA:119,0
DA:120,0
DA:122,0
DA:123,0
DA:124,0
DA:127,0
DA:128,0
DA:129,0
DA:130,0
DA:131,0
DA:132,0
DA:134,0
DA:135,0
DA:137,0
DA:138,0
DA:139,0
DA:140,0
DA:141,0
DA:142,0
DA:143,0
DA:144,0
DA:145,0
DA:146,0
DA:147,0
DA:148,0
DA:149,0
DA:150,0
DA:151,0
DA:152,0
DA:153,0
DA:154,0
DA:155,0
DA:159,0
DA:160,0
DA:161,0
DA:162,0
DA:163,0
DA:165,0
DA:166,0
DA:168,0
DA:169,0
DA:170,0
DA:171,0
DA:172,0
DA:173,0
DA:174,0
DA:175,0
DA:176,0
DA:178,0
DA:179,0
DA:180,0
DA:182,0
DA:183,0
DA:187,0
DA:188,0
DA:189,0
DA:190,0
DA:191,0
DA:192,0
DA:193,0
DA:194,0
DA:196,0
DA:197,0
DA:198,0
DA:199,0
DA:200,0
DA:201,0
DA:202,0
DA:205,0
DA:206,0
DA:207,0
DA:208,0
DA:209,0
DA:211,0
DA:212,0
DA:216,0
DA:217,0
DA:218,0
DA:219,0
DA:220,0
DA:221,0
DA:222,0
DA:223,0
DA:224,0
DA:225,0
DA:229,0
DA:230,0
DA:233,0
DA:234,0
DA:235,0
DA:236,0
DA:237,0
DA:239,0
DA:240,0
DA:241,0
DA:242,0
DA:243,0
DA:244,0
DA:246,0
DA:247,0
DA:248,0
DA:250,0
DA:251,0
DA:252,0
DA:253,0
DA:254,0
DA:255,0
DA:257,0
DA:258,0
DA:259,0
DA:260,0
DA:262,0
DA:263,0
DA:267,0
DA:268,0
DA:269,0
DA:270,0
DA:271,0
DA:272,0
DA:276,0
DA:277,0
DA:278,0
DA:279,0
DA:280,0
DA:281,0
DA:282,0
DA:283,0
DA:284,0
DA:285,0
DA:286,0
DA:287,0
DA:288,0
DA:289,0
DA:291,0
DA:292,0
DA:293,0
DA:294,0
DA:295,0
DA:296,0
DA:297,0
DA:298,0
DA:300,0
DA:301,0
DA:303,0
DA:304,0
DA:305,0
DA:322,0
DA:323,0
DA:324,0
DA:325,0
DA:326,0
DA:327,0
DA:329,0
DA:330,0
DA:331,0
DA:333,0
DA:334,0
DA:335,0
DA:336,0
DA:337,0
DA:338,0
DA:339,0
DA:340,0
DA:341,0
DA:343,0
DA:344,0
DA:345,0
DA:347,0
DA:348,0
DA:350,0
DA:351,0
DA:352,0
DA:353,0
DA:354,0
DA:355,0
DA:356,0
DA:357,0
DA:358,0
DA:360,0
DA:361,0
DA:362,0
DA:363,0
DA:364,0
DA:365,0
DA:366,0
DA:367,0
DA:368,0
DA:370,0
DA:372,0
DA:373,0
DA:374,0
DA:375,0
DA:377,0
DA:379,0
DA:380,0
DA:381,0
DA:382,0
DA:383,0
DA:384,0
DA:385,0
DA:386,0
DA:387,0
DA:388,0
DA:389,0
DA:390,0
DA:391,0
DA:392,0
DA:427,0
DA:428,0
DA:429,0
DA:430,0
DA:431,0
DA:432,0
DA:434,0
DA:435,0
DA:436,0
DA:438,0
DA:439,0
DA:440,0
DA:441,0
DA:442,0
DA:443,0
DA:444,0
DA:445,0
DA:446,0
DA:447,0
DA:448,0
DA:449,0
DA:450,0
DA:451,0
DA:453,0
DA:454,0
DA:455,0
DA:456,0
DA:457,0
DA:459,0
DA:460,0
DA:461,0
DA:462,0
DA:463,0
DA:464,0
DA:465,0
DA:466,0
DA:467,0
DA:468,0
DA:469,0
DA:476,0
DA:477,0
DA:478,0
DA:479,0
DA:480,0
DA:481,0
DA:482,0
DA:483,0
DA:484,0
DA:485,0
DA:487,0
DA:488,0
DA:489,0
DA:490,0
DA:491,0
DA:513,0
DA:514,0
DA:515,0
DA:516,0
DA:517,0
DA:518,0
DA:520,0
DA:521,0
DA:522,0
DA:523,0
DA:524,0
DA:525,0
DA:527,0
DA:528,0
DA:529,0
DA:530,0
DA:531,0
DA:533,0
DA:534,0
DA:535,0
DA:536,0
DA:537,0
DA:538,0
DA:539,0
DA:540,0
DA:541,0
DA:542,0
DA:544,0
DA:545,0
DA:546,0
DA:547,0
DA:548,0
DA:552,0
DA:553,0
DA:554,0
DA:555,0
DA:556,0
DA:557,0
DA:558,0
DA:559,0
DA:560,0
DA:561,0
DA:562,0
DA:563,0
DA:564,0
DA:565,0
DA:566,0
DA:568,0
DA:569,0
DA:570,0
DA:571,0
DA:572,0
DA:573,0
DA:574,0
DA:576,0
DA:577,0
DA:578,0
DA:579,0
DA:580,0
DA:582,0
DA:583,0
DA:594,0
DA:595,0
DA:596,0
DA:597,0
DA:598,0
DA:599,0
DA:600,0
DA:601,0
DA:602,0
DA:603,0
DA:604,0
DA:605,0
DA:606,0
DA:607,0
DA:608,0
DA:609,0
DA:610,0
DA:611,0
DA:612,0
DA:613,0
DA:614,0
DA:615,0
DA:616,0
DA:617,0
DA:618,0
DA:619,0
DA:620,0
DA:621,0
DA:622,0
DA:623,0
DA:624,0
DA:625,0
DA:626,0
DA:627,0
DA:628,0
DA:629,0
DA:632,0
DA:633,0
DA:634,0
DA:635,0
DA:637,0
DA:638,0
DA:640,0
DA:641,0
DA:642,0
DA:643,0
DA:644,0
DA:645,0
DA:646,0
DA:651,0
DA:652,0
DA:653,0
DA:654,0
DA:655,0
DA:656,0
DA:657,0
DA:658,0
DA:659,0
DA:660,0
DA:661,0
DA:662,0
DA:667,0
DA:668,0
DA:669,0
DA:670,0
DA:671,0
DA:674,0
DA:675,0
DA:676,0
DA:677,0
DA:678,0
DA:681,0
DA:682,0
DA:683,0
DA:684,0
DA:685,0
DA:688,0
DA:689,0
DA:690,0
DA:691,0
DA:692,0
DA:695,0
DA:696,0
DA:697,0
DA:698,0
DA:699,0
DA:702,0
DA:703,0
DA:704,0
DA:705,0
DA:706,0
DA:709,0
DA:710,0
DA:711,0
DA:712,0
DA:713,0
DA:718,0
DA:719,0
DA:720,0
DA:721,0
DA:722,0
DA:723,0
DA:724,0
DA:727,0
DA:728,0
DA:729,0
DA:730,0
DA:731,0
DA:734,0
DA:735,0
DA:736,0
DA:737,0
DA:738,0
DA:739,0
DA:740,0
DA:743,0
DA:744,0
DA:745,0
DA:746,0
DA:747,0
DA:752,0
DA:753,0
DA:754,0
DA:755,0
DA:756,0
DA:757,0
DA:758,0
DA:759,0
DA:762,0
DA:763,0
DA:764,0
DA:765,0
DA:766,0
DA:767,0
DA:768,0
DA:769,0
DA:770,0
DA:771,0
DA:772,0
DA:773,0
DA:776,0
DA:777,0
DA:778,0
DA:779,0
DA:780,0
DA:781,0
DA:782,0
DA:783,0
DA:784,0
DA:785,0
DA:786,0
DA:789,0
DA:790,0
DA:791,0
DA:792,0
DA:793,0
DA:794,0
DA:795,0
DA:796,0
DA:797,0
DA:798,0
DA:803,0
DA:804,0
DA:805,0
DA:806,0
DA:807,0
DA:808,0
DA:809,0
DA:810,0
DA:811,0
DA:812,0
DA:817,0
DA:818,0
DA:819,0
DA:820,0
DA:821,0
DA:822,0
DA:823,0
DA:826,0
DA:827,0
DA:828,0
DA:829,0
DA:830,0
DA:831,0
DA:832,0
DA:833,0
DA:838,0
DA:839,0
DA:840,0
DA:841,0
DA:842,0
DA:843,0
DA:845,0
DA:846,0
DA:847,0
DA:848,0
DA:849,0
DA:850,0
DA:851,0
DA:854,0
DA:855,0
DA:856,0
DA:857,0
DA:862,0
DA:863,0
DA:864,0
DA:865,0
DA:866,0
DA:867,0
DA:869,0
DA:870,0
DA:871,0
DA:873,0
DA:874,0
DA:875,0
DA:877,0
DA:878,0
DA:879,0
DA:881,0
DA:882,0
DA:883,0
DA:886,0
DA:887,0
DA:888,0
DA:889,0
DA:890,0
DA:891,0
DA:894,0
DA:895,0
DA:896,0
DA:899,0
DA:900,0
DA:901,0
DA:902,0
DA:903,0
DA:904,0
DA:905,0
DA:908,0
DA:909,0
DA:910,0
DA:911,0
DA:912,0
DA:913,0
DA:914,0
DA:915,0
DA:916,0
DA:917,0
DA:918,0
BRF:0
BRH:0
LF:690
LH:0
end_of_record
SF:/home/abdyhw/Documents/Grilles/inspection-multi-grilles-copy/inspection-officine/src-tauri/src/users.rs
FN:317,_RNvNtNtCs6hgwym0NSuY_19inspection_officine5users5tests14create_test_db
FN:388,_RNvNtNtCs6hgwym0NSuY_19inspection_officine5users5testss_11test_logout
FN:449,_RNvNtNtCs6hgwym0NSuY_19inspection_officine5users5testss_15test_list_users
FN:396,_RNvNtNtCs6hgwym0NSuY_19inspection_officine5users5testss_16test_create_user
FN:350,_RNvNtNtCs6hgwym0NSuY_19inspection_officine5users5testss_18test_login_success
FN:442,_RNvNtNtCs6hgwym0NSuY_19inspection_officine5users5testss_20test_deactivate_user
FN:372,_RNvNtNtCs6hgwym0NSuY_19inspection_officine5users5testss_21test_validate_session
FN:269,_RNvNtNtCs6hgwym0NSuY_19inspection_officine5users5testss_22test_validate_input_ok
FN:366,_RNvNtNtCs6hgwym0NSuY_19inspection_officine5users5testss_23test_login_unknown_user
FN:254,_RNvNtNtCs6hgwym0NSuY_19inspection_officine5users5testss_24test_validate_role_valid
FN:360,_RNvNtNtCs6hgwym0NSuY_19inspection_officine5users5testss_25test_login_wrong_password
FN:287,_RNvNtNtCs6hgwym0NSuY_19inspection_officine5users5testss_25test_validate_password_ok
FN:412,_RNvNtNtCs6hgwym0NSuY_19inspection_officine5users5testss_26test_create_duplicate_user
FN:262,_RNvNtNtCs6hgwym0NSuY_19inspection_officine5users5testss_26test_validate_role_invalid
FN:281,_RNvNtNtCs6hgwym0NSuY_19inspection_officine5users5testss_28test_validate_input_too_long
FN:275,_RNvNtNtCs6hgwym0NSuY_19inspection_officine5users5testss_29test_validate_input_too_short
FN:424,_RNvNtNtCs6hgwym0NSuY_19inspection_officine5users5testss_30test_change_password_and_login
FN:432,_RNvNtNtCs6hgwym0NSuY_19inspection_officine5users5testss_31test_clear_must_change_password
FN:310,_RNvNtNtCs6hgwym0NSuY_19inspection_officine5users5testss_31test_validate_password_too_long
FN:300,_RNvNtNtCs6hgwym0NSuY_19inspection_officine5users5testss_32test_validate_password_no_digits
FN:294,_RNvNtNtCs6hgwym0NSuY_19inspection_officine5users5testss_32test_validate_password_too_short
FN:305,_RNvNtNtCs6hgwym0NSuY_19inspection_officine5users5testss_33test_validate_password_no_letters
FN:382,_RNvNtNtCs6hgwym0NSuY_19inspection_officine5users5testss_35test_validate_session_invalid_token
FN:178,_RNCNvNtCs6hgwym0NSuY_19inspection_officine5users10list_users0B5_
FN:183,_RNCNvNtCs6hgwym0NSuY_19inspection_officine5users10list_userss0_0B5_
FN:186,_RNCNvNtCs6hgwym0NSuY_19inspection_officine5users10list_userss1_0B5_
FN:187,_RNCNvNtCs6hgwym0NSuY_19inspection_officine5users10list_userss2_0B5_
FN:181,_RNCNvNtCs6hgwym0NSuY_19inspection_officine5users10list_userss_0B5_
FN:138,_RNCNvNtCs6hgwym0NSuY_19inspection_officine5users11create_user0B5_
FN:145,_RNCNvNtCs6hgwym0NSuY_19inspection_officine5users11create_users0_0B5_
FN:140,_RNCNvNtCs6hgwym0NSuY_19inspection_officine5users11create_users_0B5_
FN:228,_RNCNvNtCs6hgwym0NSuY_19inspection_officine5users11delete_user0B5_
FN:231,_RNCNvNtCs6hgwym0NSuY_19inspection_officine5users11delete_users_0B5_
FN:170,_RNCNvNtCs6hgwym0NSuY_19inspection_officine5users15change_password0B5_
FN:173,_RNCNvNtCs6hgwym0NSuY_19inspection_officine5users15change_passwords0_0B5_
FN:171,_RNCNvNtCs6hgwym0NSuY_19inspection_officine5users15change_passwords_0B5_
FN:90,_RNCNvNtCs6hgwym0NSuY_19inspection_officine5users16validate_session0B5_
FN:101,_RNCNvNtCs6hgwym0NSuY_19inspection_officine5users16validate_sessions0_0B5_
FN:97,_RNCNvNtCs6hgwym0NSuY_19inspection_officine5users16validate_sessions_0B5_
FN:219,_RNCNvNtCs6hgwym0NSuY_19inspection_officine5users17validate_password0B5_
FN:220,_RNCNvNtCs6hgwym0NSuY_19inspection_officine5users17validate_passwords_0B5_
FN:193,_RNCNvNtCs6hgwym0NSuY_19inspection_officine5users26clear_must_change_password0B5_
FN:197,_RNCNvNtCs6hgwym0NSuY_19inspection_officine5users26clear_must_change_passwords_0B5_
FN:41,_RNCNvNtCs6hgwym0NSuY_19inspection_officine5users5login0B5_
FN:59,_RNCNvNtCs6hgwym0NSuY_19inspection_officine5users5logins0_0B5_
FN:81,_RNCNvNtCs6hgwym0NSuY_19inspection_officine5users5logins1_0B5_
FN:46,_RNCNvNtCs6hgwym0NSuY_19inspection_officine5users5logins_0B5_
FN:129,_RNCNvNtCs6hgwym0NSuY_19inspection_officine5users6logout0B5_
FN:131,_RNCNvNtCs6hgwym0NSuY_19inspection_officine5users6logouts_0B5_
FN:153,_RNCNvNtCs6hgwym0NSuY_19inspection_officine5users11update_user0B5_
FN:160,_RNCNvNtCs6hgwym0NSuY_19inspection_officine5users11update_users0_0B5_
FN:164,_RNCNvNtCs6hgwym0NSuY_19inspection_officine5users11update_users1_0B5_
FN:156,_RNCNvNtCs6hgwym0NSuY_19inspection_officine5users11update_users_0B5_
FN:114,_RNCNvNtCs6hgwym0NSuY_19inspection_officine5users26validate_session_unchecked0B5_
FN:125,_RNCNvNtCs6hgwym0NSuY_19inspection_officine5users26validate_session_uncheckeds0_0B5_
FN:121,_RNCNvNtCs6hgwym0NSuY_19inspection_officine5users26validate_session_uncheckeds_0B5_
FN:152,_RNvNtCs6hgwym0NSuY_19inspection_officine5users11update_user
FN:113,_RNvNtCs6hgwym0NSuY_19inspection_officine5users26validate_session_unchecked
FN:177,_RNvNtCs6hgwym0NSuY_19inspection_officine5users10list_users
FN:137,_RNvNtCs6hgwym0NSuY_19inspection_officine5users11create_user
FN:227,_RNvNtCs6hgwym0NSuY_19inspection_officine5users11delete_user
FN:236,_RNvNtCs6hgwym0NSuY_19inspection_officine5users13validate_role
FN:201,_RNvNtCs6hgwym0NSuY_19inspection_officine5users14validate_input
FN:169,_RNvNtCs6hgwym0NSuY_19inspection_officine5users15change_password
FN:89,_RNvNtCs6hgwym0NSuY_19inspection_officine5users16validate_session
FN:212,_RNvNtCs6hgwym0NSuY_19inspection_officine5users17validate_password
FN:192,_RNvNtCs6hgwym0NSuY_19inspection_officine5users26clear_must_change_password
FN:40,_RNvNtCs6hgwym0NSuY_19inspection_officine5users5login
FN:128,_RNvNtCs6hgwym0NSuY_19inspection_officine5users6logout
FNDA:0,_RNvNtNtCs6hgwym0NSuY_19inspection_officine5users5tests14create_test_db
FNDA:0,_RNvNtNtCs6hgwym0NSuY_19inspection_officine5users5testss_11test_logout
FNDA:0,_RNvNtNtCs6hgwym0NSuY_19inspection_officine5users5testss_15test_list_users
FNDA:0,_RNvNtNtCs6hgwym0NSuY_19inspection_officine5users5testss_16test_create_user
FNDA:0,_RNvNtNtCs6hgwym0NSuY_19inspection_officine5users5testss_18test_login_success
FNDA:0,_RNvNtNtCs6hgwym0NSuY_19inspection_officine5users5testss_20test_deactivate_user
FNDA:0,_RNvNtNtCs6hgwym0NSuY_19inspection_officine5users5testss_21test_validate_session
FNDA:0,_RNvNtNtCs6hgwym0NSuY_19inspection_officine5users5testss_22test_validate_input_ok
FNDA:0,_RNvNtNtCs6hgwym0NSuY_19inspection_officine5users5testss_23test_login_unknown_user
FNDA:0,_RNvNtNtCs6hgwym0NSuY_19inspection_officine5users5testss_24test_validate_role_valid
FNDA:0,_RNvNtNtCs6hgwym0NSuY_19inspection_officine5users5testss_25test_login_wrong_password
FNDA:0,_RNvNtNtCs6hgwym0NSuY_19inspection_officine5users5testss_25test_validate_password_ok
FNDA:0,_RNvNtNtCs6hgwym0NSuY_19inspection_officine5users5testss_26test_create_duplicate_user
FNDA:0,_RNvNtNtCs6hgwym0NSuY_19inspection_officine5users5testss_26test_validate_role_invalid
FNDA:0,_RNvNtNtCs6hgwym0NSuY_19inspection_officine5users5testss_28test_validate_input_too_long
FNDA:0,_RNvNtNtCs6hgwym0NSuY_19inspection_officine5users5testss_29test_validate_input_too_short
FNDA:0,_RNvNtNtCs6hgwym0NSuY_19inspection_officine5users5testss_30test_change_password_and_login
FNDA:0,_RNvNtNtCs6hgwym0NSuY_19inspection_officine5users5testss_31test_clear_must_change_password
FNDA:0,_RNvNtNtCs6hgwym0NSuY_19inspection_officine5users5testss_31test_validate_password_too_long
FNDA:0,_RNvNtNtCs6hgwym0NSuY_19inspection_officine5users5testss_32test_validate_password_no_digits
FNDA:0,_RNvNtNtCs6hgwym0NSuY_19inspection_officine5users5testss_32test_validate_password_too_short
FNDA:0,_RNvNtNtCs6hgwym0NSuY_19inspection_officine5users5testss_33test_validate_password_no_letters
FNDA:0,_RNvNtNtCs6hgwym0NSuY_19inspection_officine5users5testss_35test_validate_session_invalid_token
FNDA:0,_RNCNvNtCs6hgwym0NSuY_19inspection_officine5users10list_users0B5_
FNDA:0,_RNCNvNtCs6hgwym0NSuY_19inspection_officine5users10list_userss0_0B5_
FNDA:0,_RNCNvNtCs6hgwym0NSuY_19inspection_officine5users10list_userss1_0B5_
FNDA:0,_RNCNvNtCs6hgwym0NSuY_19inspection_officine5users10list_userss2_0B5_
FNDA:0,_RNCNvNtCs6hgwym0NSuY_19inspection_officine5users10list_userss_0B5_
FNDA:0,_RNCNvNtCs6hgwym0NSuY_19inspection_officine5users11create_user0B5_
FNDA:0,_RNCNvNtCs6hgwym0NSuY_19inspection_officine5users11create_users0_0B5_
FNDA:0,_RNCNvNtCs6hgwym0NSuY_19inspection_officine5users11create_users_0B5_
FNDA:0,_RNCNvNtCs6hgwym0NSuY_19inspection_officine5users11delete_user0B5_
FNDA:0,_RNCNvNtCs6hgwym0NSuY_19inspection_officine5users11delete_users_0B5_
FNDA:0,_RNCNvNtCs6hgwym0NSuY_19inspection_officine5users15change_password0B5_
FNDA:0,_RNCNvNtCs6hgwym0NSuY_19inspection_officine5users15change_passwords0_0B5_
FNDA:0,_RNCNvNtCs6hgwym0NSuY_19inspection_officine5users15change_passwords_0B5_
FNDA:0,_RNCNvNtCs6hgwym0NSuY_19inspection_officine5users16validate_session0B5_
FNDA:0,_RNCNvNtCs6hgwym0NSuY_19inspection_officine5users16validate_sessions0_0B5_
FNDA:0,_RNCNvNtCs6hgwym0NSuY_19inspection_officine5users16validate_sessions_0B5_
FNDA:0,_RNCNvNtCs6hgwym0NSuY_19inspection_officine5users17validate_password0B5_
FNDA:0,_RNCNvNtCs6hgwym0NSuY_19inspection_officine5users17validate_passwords_0B5_
FNDA:0,_RNCNvNtCs6hgwym0NSuY_19inspection_officine5users26clear_must_change_password0B5_
FNDA:0,_RNCNvNtCs6hgwym0NSuY_19inspection_officine5users26clear_must_change_passwords_0B5_
FNDA:0,_RNCNvNtCs6hgwym0NSuY_19inspection_officine5users5login0B5_
FNDA:0,_RNCNvNtCs6hgwym0NSuY_19inspection_officine5users5logins0_0B5_
FNDA:0,_RNCNvNtCs6hgwym0NSuY_19inspection_officine5users5logins1_0B5_
FNDA:0,_RNCNvNtCs6hgwym0NSuY_19inspection_officine5users5logins_0B5_
FNDA:0,_RNCNvNtCs6hgwym0NSuY_19inspection_officine5users6logout0B5_
FNDA:0,_RNCNvNtCs6hgwym0NSuY_19inspection_officine5users6logouts_0B5_
FNDA:0,_RNCNvNtCs6hgwym0NSuY_19inspection_officine5users11update_user0B5_
FNDA:0,_RNCNvNtCs6hgwym0NSuY_19inspection_officine5users11update_users0_0B5_
FNDA:0,_RNCNvNtCs6hgwym0NSuY_19inspection_officine5users11update_users1_0B5_
FNDA:0,_RNCNvNtCs6hgwym0NSuY_19inspection_officine5users11update_users_0B5_
FNDA:0,_RNCNvNtCs6hgwym0NSuY_19inspection_officine5users26validate_session_unchecked0B5_
FNDA:0,_RNCNvNtCs6hgwym0NSuY_19inspection_officine5users26validate_session_uncheckeds0_0B5_
FNDA:0,_RNCNvNtCs6hgwym0NSuY_19inspection_officine5users26validate_session_uncheckeds_0B5_
FNDA:0,_RNvNtCs6hgwym0NSuY_19inspection_officine5users11update_user
FNDA:0,_RNvNtCs6hgwym0NSuY_19inspection_officine5users26validate_session_unchecked
FNDA:0,_RNvNtCs6hgwym0NSuY_19inspection_officine5users10list_users
FNDA:0,_RNvNtCs6hgwym0NSuY_19inspection_officine5users11create_user
FNDA:0,_RNvNtCs6hgwym0NSuY_19inspection_officine5users11delete_user
FNDA:0,_RNvNtCs6hgwym0NSuY_19inspection_officine5users13validate_role
FNDA:0,_RNvNtCs6hgwym0NSuY_19inspection_officine5users14validate_input
FNDA:0,_RNvNtCs6hgwym0NSuY_19inspection_officine5users15change_password
FNDA:0,_RNvNtCs6hgwym0NSuY_19inspection_officine5users16validate_session
FNDA:0,_RNvNtCs6hgwym0NSuY_19inspection_officine5users17validate_password
FNDA:0,_RNvNtCs6hgwym0NSuY_19inspection_officine5users26clear_must_change_password
FNDA:0,_RNvNtCs6hgwym0NSuY_19inspection_officine5users5login
FNDA:0,_RNvNtCs6hgwym0NSuY_19inspection_officine5users6logout
FNF:69
FNH:0
DA:40,0
DA:41,0
DA:43,0
DA:44,0
DA:45,0
DA:46,0
DA:48,0
DA:49,0
DA:50,0
DA:51,0
DA:52,0
DA:53,0
DA:54,0
DA:55,0
DA:56,0
DA:58,0
DA:59,0
DA:61,0
DA:63,0
DA:64,0
DA:65,0
DA:67,0
DA:68,0
DA:69,0
DA:71,0
DA:72,0
DA:73,0
DA:74,0
DA:75,0
DA:76,0
DA:78,0
DA:79,0
DA:80,0
DA:81,0
DA:83,0
DA:84,0
DA:85,0
DA:86,0
DA:87,0
DA:89,0
DA:90,0
DA:91,0
DA:92,0
DA:93,0
DA:94,0
DA:95,0
DA:97,0
DA:98,0
DA:99,0
DA:101,0
DA:104,0
DA:105,0
DA:106,0
DA:108,0
DA:109,0
DA:113,0
DA:114,0
DA:115,0
DA:116,0
DA:117,0
DA:118,0
DA:119,0
DA:121,0
DA:122,0
DA:123,0
DA:125,0
DA:126,0
DA:128,0
DA:129,0
DA:130,0
DA:131,0
DA:132,0
DA:133,0
DA:137,0
DA:138,0
DA:139,0
DA:140,0
DA:142,0
DA:143,0
DA:144,0
DA:145,0
DA:147,0
DA:148,0
DA:149,0
DA:150,0
DA:152,0
DA:153,0
DA:154,0
DA:155,0
DA:156,0
DA:157,0
DA:158,0
DA:159,0
DA:160,0
DA:161,0
DA:162,0
DA:163,0
DA:164,0
DA:165,0
DA:166,0
DA:167,0
DA:169,0
DA:170,0
DA:171,0
DA:172,0
DA:173,0
DA:174,0
DA:175,0
DA:177,0
DA:178,0
DA:179,0
DA:180,0
DA:181,0
DA:182,0
DA:183,0
DA:184,0
DA:185,0
DA:186,0
DA:187,0
DA:188,0
DA:189,0
DA:190,0
DA:192,0
DA:193,0
DA:194,0
DA:195,0
DA:196,0
DA:197,0
DA:198,0
DA:199,0
DA:201,0
DA:202,0
DA:203,0
DA:204,0
DA:205,0
DA:206,0
DA:207,0
DA:208,0
DA:209,0
DA:210,0
DA:212,0
DA:213,0
DA:214,0
DA:215,0
DA:216,0
DA:217,0
DA:218,0
DA:219,0
DA:220,0
DA:221,0
DA:222,0
DA:223,0
DA:224,0
DA:225,0
DA:227,0
DA:228,0
DA:229,0
DA:230,0
DA:231,0
DA:232,0
DA:233,0
DA:236,0
DA:237,0
DA:238,0
DA:239,0
DA:240,0
DA:241,0
DA:242,0
DA:254,0
DA:255,0
DA:256,0
DA:257,0
DA:258,0
DA:259,0
DA:262,0
DA:263,0
DA:264,0
DA:265,0
DA:266,0
DA:269,0
DA:270,0
DA:271,0
DA:272,0
DA:275,0
DA:276,0
DA:277,0
DA:278,0
DA:281,0
DA:282,0
DA:283,0
DA:284,0
DA:287,0
DA:288,0
DA:289,0
DA:290,0
DA:291,0
DA:294,0
DA:295,0
DA:296,0
DA:297,0
DA:300,0
DA:301,0
DA:302,0
DA:305,0
DA:306,0
DA:307,0
DA:310,0
DA:311,0
DA:312,0
DA:313,0
DA:317,0
DA:321,0
DA:322,0
DA:323,0
DA:324,0
DA:325,0
DA:326,0
DA:327,0
DA:328,0
DA:329,0
DA:330,0
DA:331,0
DA:332,0
DA:333,0
DA:334,0
DA:335,0
DA:336,0
DA:337,0
DA:340,0
DA:341,0
DA:342,0
DA:343,0
DA:344,0
DA:346,0
DA:347,0
DA:350,0
DA:351,0
DA:352,0
DA:353,0
DA:354,0
DA:355,0
DA:356,0
DA:357,0
DA:360,0
DA:361,0
DA:362,0
DA:363,0
DA:366,0
DA:367,0
DA:368,0
DA:369,0
DA:372,0
DA:373,0
DA:374,0
DA:375,0
DA:376,0
DA:377,0
DA:378,0
DA:379,0
DA:382,0
DA:383,0
DA:384,0
DA:385,0
DA:388,0
DA:389,0
DA:390,0
DA:391,0
DA:392,0
DA:393,0
DA:396,0
DA:397,0
DA:398,0
DA:399,0
DA:400,0
DA:401,0
DA:402,0
DA:403,0
DA:404,0
DA:405,0
DA:406,0
DA:407,0
DA:408,0
DA:409,0
DA:412,0
DA:413,0
DA:414,0
DA:415,0
DA:416,0
DA:417,0
DA:418,0
DA:419,0
DA:420,0
DA:421,0
DA:424,0
DA:425,0
DA:426,0
DA:427,0
DA:428,0
DA:429,0
DA:432,0
DA:433,0
DA:434,0
DA:435,0
DA:436,0
DA:437,0
DA:438,0
DA:439,0
DA:442,0
DA:443,0
DA:444,0
DA:445,0
DA:446,0
DA:449,0
DA:450,0
DA:451,0
DA:452,0
DA:453,0
DA:454,0
BRF:0
BRH:0
LF:347
LH:0
end_of_record